
frak:     file format elf32-i386


Disassembly of section .text:

08048790 <.text>:
 8048790:	31 ed                	xor    ebp,ebp
 8048792:	5e                   	pop    esi
 8048793:	89 e1                	mov    ecx,esp
 8048795:	83 e4 f0             	and    esp,0xfffffff0
 8048798:	50                   	push   eax
 8048799:	54                   	push   esp
 804879a:	52                   	push   edx
 804879b:	68 80 8f 04 08       	push   0x8048f80
 80487a0:	68 90 8f 04 08       	push   0x8048f90
 80487a5:	51                   	push   ecx
 80487a6:	56                   	push   esi
 80487a7:	68 44 88 04 08       	push   0x8048844
 80487ac:	e8 8f fe ff ff       	call   8048640 <__libc_start_main@plt>
 80487b1:	f4                   	hlt    
 80487b2:	90                   	nop
 80487b3:	90                   	nop
 80487b4:	90                   	nop
 80487b5:	90                   	nop
 80487b6:	90                   	nop
 80487b7:	90                   	nop
 80487b8:	90                   	nop
 80487b9:	90                   	nop
 80487ba:	90                   	nop
 80487bb:	90                   	nop
 80487bc:	90                   	nop
 80487bd:	90                   	nop
 80487be:	90                   	nop
 80487bf:	90                   	nop
 80487c0:	55                   	push   ebp
 80487c1:	89 e5                	mov    ebp,esp
 80487c3:	53                   	push   ebx
 80487c4:	83 ec 04             	sub    esp,0x4
 80487c7:	80 3d 7c b0 04 08 00 	cmp    BYTE PTR ds:0x804b07c,0x0
 80487ce:	75 3f                	jne    804880f <exit@plt+0x8f>
 80487d0:	a1 80 b0 04 08       	mov    eax,ds:0x804b080
 80487d5:	bb 20 af 04 08       	mov    ebx,0x804af20
 80487da:	81 eb 1c af 04 08    	sub    ebx,0x804af1c
 80487e0:	c1 fb 02             	sar    ebx,0x2
 80487e3:	83 eb 01             	sub    ebx,0x1
 80487e6:	39 d8                	cmp    eax,ebx
 80487e8:	73 1e                	jae    8048808 <exit@plt+0x88>
 80487ea:	8d b6 00 00 00 00    	lea    esi,[esi+0x0]
 80487f0:	83 c0 01             	add    eax,0x1
 80487f3:	a3 80 b0 04 08       	mov    ds:0x804b080,eax
 80487f8:	ff 14 85 1c af 04 08 	call   DWORD PTR [eax*4+0x804af1c]
 80487ff:	a1 80 b0 04 08       	mov    eax,ds:0x804b080
 8048804:	39 d8                	cmp    eax,ebx
 8048806:	72 e8                	jb     80487f0 <exit@plt+0x70>
 8048808:	c6 05 7c b0 04 08 01 	mov    BYTE PTR ds:0x804b07c,0x1
 804880f:	83 c4 04             	add    esp,0x4
 8048812:	5b                   	pop    ebx
 8048813:	5d                   	pop    ebp
 8048814:	c3                   	ret    
 8048815:	8d 74 26 00          	lea    esi,[esi+eiz*1+0x0]
 8048819:	8d bc 27 00 00 00 00 	lea    edi,[edi+eiz*1+0x0]
 8048820:	55                   	push   ebp
 8048821:	89 e5                	mov    ebp,esp
 8048823:	83 ec 18             	sub    esp,0x18
 8048826:	a1 24 af 04 08       	mov    eax,ds:0x804af24
 804882b:	85 c0                	test   eax,eax
 804882d:	74 12                	je     8048841 <exit@plt+0xc1>
 804882f:	b8 00 00 00 00       	mov    eax,0x0
 8048834:	85 c0                	test   eax,eax
 8048836:	74 09                	je     8048841 <exit@plt+0xc1>
 8048838:	c7 04 24 24 af 04 08 	mov    DWORD PTR [esp],0x804af24
 804883f:	ff d0                	call   eax
 8048841:	c9                   	leave  
 8048842:	c3                   	ret    
 8048843:	90                   	nop
 8048844:	55                   	push   ebp
 8048845:	89 e5                	mov    ebp,esp
 8048847:	83 e4 f0             	and    esp,0xfffffff0
 804884a:	83 ec 20             	sub    esp,0x20
 804884d:	c7 44 24 1c 00 00 00 	mov    DWORD PTR [esp+0x1c],0x0
 8048854:	00 
 8048855:	a1 78 b0 04 08       	mov    eax,ds:0x804b078
 804885a:	0f b7 c0             	movzx  eax,ax
 804885d:	89 04 24             	mov    DWORD PTR [esp],eax
 8048860:	e8 1f 00 00 00       	call   8048884 <exit@plt+0x104>
 8048865:	89 44 24 1c          	mov    DWORD PTR [esp+0x1c],eax
 8048869:	c7 44 24 04 1b 8f 04 	mov    DWORD PTR [esp+0x4],0x8048f1b
 8048870:	08 
 8048871:	8b 44 24 1c          	mov    eax,DWORD PTR [esp+0x1c]
 8048875:	89 04 24             	mov    DWORD PTR [esp],eax
 8048878:	e8 5b 01 00 00       	call   80489d8 <exit@plt+0x258>
 804887d:	b8 00 00 00 00       	mov    eax,0x0
 8048882:	c9                   	leave  
 8048883:	c3                   	ret    
 8048884:	55                   	push   ebp
 8048885:	89 e5                	mov    ebp,esp
 8048887:	83 ec 58             	sub    esp,0x58
 804888a:	8b 45 08             	mov    eax,DWORD PTR [ebp+0x8]
 804888d:	66 89 45 d4          	mov    WORD PTR [ebp-0x2c],ax
 8048891:	c7 45 f4 00 00 00 00 	mov    DWORD PTR [ebp-0xc],0x0
 8048898:	c7 45 f0 01 00 00 00 	mov    DWORD PTR [ebp-0x10],0x1
 804889f:	66 c7 45 e0 02 00    	mov    WORD PTR [ebp-0x20],0x2
 80488a5:	0f b7 45 d4          	movzx  eax,WORD PTR [ebp-0x2c]
 80488a9:	89 04 24             	mov    DWORD PTR [esp],eax
 80488ac:	e8 9f fd ff ff       	call   8048650 <htons@plt>
 80488b1:	66 89 45 e2          	mov    WORD PTR [ebp-0x1e],ax
 80488b5:	c7 04 24 00 00 00 00 	mov    DWORD PTR [esp],0x0
 80488bc:	e8 7f fe ff ff       	call   8048740 <htonl@plt>
 80488c1:	89 45 e4             	mov    DWORD PTR [ebp-0x1c],eax
 80488c4:	c7 44 24 04 01 00 00 	mov    DWORD PTR [esp+0x4],0x1
 80488cb:	00 
 80488cc:	c7 04 24 11 00 00 00 	mov    DWORD PTR [esp],0x11
 80488d3:	e8 18 fd ff ff       	call   80485f0 <signal@plt>
 80488d8:	83 f8 ff             	cmp    eax,0xffffffff
 80488db:	75 14                	jne    80488f1 <exit@plt+0x171>
 80488dd:	c7 44 24 04 40 90 04 	mov    DWORD PTR [esp+0x4],0x8049040
 80488e4:	08 
 80488e5:	c7 04 24 ff ff ff ff 	mov    DWORD PTR [esp],0xffffffff
 80488ec:	e8 ef fc ff ff       	call   80485e0 <err@plt>
 80488f1:	c7 44 24 08 06 00 00 	mov    DWORD PTR [esp+0x8],0x6
 80488f8:	00 
 80488f9:	c7 44 24 04 01 00 00 	mov    DWORD PTR [esp+0x4],0x1
 8048900:	00 
 8048901:	c7 04 24 02 00 00 00 	mov    DWORD PTR [esp],0x2
 8048908:	e8 93 fd ff ff       	call   80486a0 <socket@plt>
 804890d:	89 45 f4             	mov    DWORD PTR [ebp-0xc],eax
 8048910:	83 7d f4 ff          	cmp    DWORD PTR [ebp-0xc],0xffffffff
 8048914:	75 14                	jne    804892a <exit@plt+0x1aa>
 8048916:	c7 44 24 04 5e 90 04 	mov    DWORD PTR [esp+0x4],0x804905e
 804891d:	08 
 804891e:	c7 04 24 ff ff ff ff 	mov    DWORD PTR [esp],0xffffffff
 8048925:	e8 b6 fc ff ff       	call   80485e0 <err@plt>
 804892a:	c7 44 24 10 04 00 00 	mov    DWORD PTR [esp+0x10],0x4
 8048931:	00 
 8048932:	8d 45 f0             	lea    eax,[ebp-0x10]
 8048935:	89 44 24 0c          	mov    DWORD PTR [esp+0xc],eax
 8048939:	c7 44 24 08 02 00 00 	mov    DWORD PTR [esp+0x8],0x2
 8048940:	00 
 8048941:	c7 44 24 04 01 00 00 	mov    DWORD PTR [esp+0x4],0x1
 8048948:	00 
 8048949:	8b 45 f4             	mov    eax,DWORD PTR [ebp-0xc]
 804894c:	89 04 24             	mov    DWORD PTR [esp],eax
 804894f:	e8 dc fd ff ff       	call   8048730 <setsockopt@plt>
 8048954:	83 f8 ff             	cmp    eax,0xffffffff
 8048957:	75 14                	jne    804896d <exit@plt+0x1ed>
 8048959:	c7 44 24 04 76 90 04 	mov    DWORD PTR [esp+0x4],0x8049076
 8048960:	08 
 8048961:	c7 04 24 ff ff ff ff 	mov    DWORD PTR [esp],0xffffffff
 8048968:	e8 73 fc ff ff       	call   80485e0 <err@plt>
 804896d:	8d 55 e0             	lea    edx,[ebp-0x20]
 8048970:	b8 00 00 00 00       	mov    eax,0x0
 8048975:	89 d0                	mov    eax,edx
 8048977:	c7 44 24 08 10 00 00 	mov    DWORD PTR [esp+0x8],0x10
 804897e:	00 
 804897f:	89 44 24 04          	mov    DWORD PTR [esp+0x4],eax
 8048983:	8b 45 f4             	mov    eax,DWORD PTR [ebp-0xc]
 8048986:	89 04 24             	mov    DWORD PTR [esp],eax
 8048989:	e8 52 fd ff ff       	call   80486e0 <bind@plt>
 804898e:	83 f8 ff             	cmp    eax,0xffffffff
 8048991:	75 14                	jne    80489a7 <exit@plt+0x227>
 8048993:	c7 44 24 04 8a 90 04 	mov    DWORD PTR [esp+0x4],0x804908a
 804899a:	08 
 804899b:	c7 04 24 ff ff ff ff 	mov    DWORD PTR [esp],0xffffffff
 80489a2:	e8 39 fc ff ff       	call   80485e0 <err@plt>
 80489a7:	c7 44 24 04 14 00 00 	mov    DWORD PTR [esp+0x4],0x14
 80489ae:	00 
 80489af:	8b 45 f4             	mov    eax,DWORD PTR [ebp-0xc]
 80489b2:	89 04 24             	mov    DWORD PTR [esp],eax
 80489b5:	e8 66 fc ff ff       	call   8048620 <listen@plt>
 80489ba:	83 f8 ff             	cmp    eax,0xffffffff
 80489bd:	75 14                	jne    80489d3 <exit@plt+0x253>
 80489bf:	c7 44 24 04 a0 90 04 	mov    DWORD PTR [esp+0x4],0x80490a0
 80489c6:	08 
 80489c7:	c7 04 24 ff ff ff ff 	mov    DWORD PTR [esp],0xffffffff
 80489ce:	e8 0d fc ff ff       	call   80485e0 <err@plt>
 80489d3:	8b 45 f4             	mov    eax,DWORD PTR [ebp-0xc]
 80489d6:	c9                   	leave  
 80489d7:	c3                   	ret    
 80489d8:	55                   	push   ebp
 80489d9:	89 e5                	mov    ebp,esp
 80489db:	83 ec 28             	sub    esp,0x28
 80489de:	c7 45 f0 01 00 00 00 	mov    DWORD PTR [ebp-0x10],0x1
 80489e5:	eb 7b                	jmp    8048a62 <exit@plt+0x2e2>
 80489e7:	b8 00 00 00 00       	mov    eax,0x0
 80489ec:	c7 44 24 08 00 00 00 	mov    DWORD PTR [esp+0x8],0x0
 80489f3:	00 
 80489f4:	89 44 24 04          	mov    DWORD PTR [esp+0x4],eax
 80489f8:	8b 45 08             	mov    eax,DWORD PTR [ebp+0x8]
 80489fb:	89 04 24             	mov    DWORD PTR [esp],eax
 80489fe:	e8 8d fc ff ff       	call   8048690 <accept@plt>
 8048a03:	89 45 e8             	mov    DWORD PTR [ebp-0x18],eax
 8048a06:	83 7d e8 ff          	cmp    DWORD PTR [ebp-0x18],0xffffffff
 8048a0a:	74 52                	je     8048a5e <exit@plt+0x2de>
 8048a0c:	e8 0f fd ff ff       	call   8048720 <fork@plt>
 8048a11:	89 45 f4             	mov    DWORD PTR [ebp-0xc],eax
 8048a14:	83 7d f4 ff          	cmp    DWORD PTR [ebp-0xc],0xffffffff
 8048a18:	74 47                	je     8048a61 <exit@plt+0x2e1>
 8048a1a:	83 7d f4 00          	cmp    DWORD PTR [ebp-0xc],0x0
 8048a1e:	75 31                	jne    8048a51 <exit@plt+0x2d1>
 8048a20:	a1 74 b0 04 08       	mov    eax,ds:0x804b074
 8048a25:	89 04 24             	mov    DWORD PTR [esp],eax
 8048a28:	e8 41 00 00 00       	call   8048a6e <exit@plt+0x2ee>
 8048a2d:	8b 45 e8             	mov    eax,DWORD PTR [ebp-0x18]
 8048a30:	89 04 24             	mov    DWORD PTR [esp],eax
 8048a33:	8b 45 0c             	mov    eax,DWORD PTR [ebp+0xc]
 8048a36:	ff d0                	call   eax
 8048a38:	89 45 ec             	mov    DWORD PTR [ebp-0x14],eax
 8048a3b:	8b 45 e8             	mov    eax,DWORD PTR [ebp-0x18]
 8048a3e:	89 04 24             	mov    DWORD PTR [esp],eax
 8048a41:	e8 aa fc ff ff       	call   80486f0 <close@plt>
 8048a46:	8b 45 ec             	mov    eax,DWORD PTR [ebp-0x14]
 8048a49:	89 04 24             	mov    DWORD PTR [esp],eax
 8048a4c:	e8 2f fd ff ff       	call   8048780 <exit@plt>
 8048a51:	8b 45 e8             	mov    eax,DWORD PTR [ebp-0x18]
 8048a54:	89 04 24             	mov    DWORD PTR [esp],eax
 8048a57:	e8 94 fc ff ff       	call   80486f0 <close@plt>
 8048a5c:	eb 04                	jmp    8048a62 <exit@plt+0x2e2>
 8048a5e:	90                   	nop
 8048a5f:	eb 01                	jmp    8048a62 <exit@plt+0x2e2>
 8048a61:	90                   	nop
 8048a62:	83 7d f0 00          	cmp    DWORD PTR [ebp-0x10],0x0
 8048a66:	0f 85 7b ff ff ff    	jne    80489e7 <exit@plt+0x267>
 8048a6c:	c9                   	leave  
 8048a6d:	c3                   	ret    
 8048a6e:	55                   	push   ebp
 8048a6f:	89 e5                	mov    ebp,esp
 8048a71:	83 ec 28             	sub    esp,0x28
 8048a74:	8b 45 08             	mov    eax,DWORD PTR [ebp+0x8]
 8048a77:	89 04 24             	mov    DWORD PTR [esp],eax
 8048a7a:	e8 f1 fc ff ff       	call   8048770 <getpwnam@plt>
 8048a7f:	89 45 f4             	mov    DWORD PTR [ebp-0xc],eax
 8048a82:	83 7d f4 00          	cmp    DWORD PTR [ebp-0xc],0x0
 8048a86:	75 1b                	jne    8048aa3 <exit@plt+0x323>
 8048a88:	8b 45 08             	mov    eax,DWORD PTR [ebp+0x8]
 8048a8b:	89 44 24 08          	mov    DWORD PTR [esp+0x8],eax
 8048a8f:	c7 44 24 04 bb 90 04 	mov    DWORD PTR [esp+0x4],0x80490bb
 8048a96:	08 
 8048a97:	c7 04 24 ff ff ff ff 	mov    DWORD PTR [esp],0xffffffff
 8048a9e:	e8 3d fb ff ff       	call   80485e0 <err@plt>
 8048aa3:	8b 45 f4             	mov    eax,DWORD PTR [ebp-0xc]
 8048aa6:	89 04 24             	mov    DWORD PTR [esp],eax
 8048aa9:	e8 20 00 00 00       	call   8048ace <exit@plt+0x34e>
 8048aae:	83 f8 ff             	cmp    eax,0xffffffff
 8048ab1:	75 14                	jne    8048ac7 <exit@plt+0x347>
 8048ab3:	c7 44 24 04 d2 90 04 	mov    DWORD PTR [esp+0x4],0x80490d2
 8048aba:	08 
 8048abb:	c7 04 24 ff ff ff ff 	mov    DWORD PTR [esp],0xffffffff
 8048ac2:	e8 19 fb ff ff       	call   80485e0 <err@plt>
 8048ac7:	b8 00 00 00 00       	mov    eax,0x0
 8048acc:	c9                   	leave  
 8048acd:	c3                   	ret    
 8048ace:	55                   	push   ebp
 8048acf:	89 e5                	mov    ebp,esp
 8048ad1:	83 ec 28             	sub    esp,0x28
 8048ad4:	8b 45 08             	mov    eax,DWORD PTR [ebp+0x8]
 8048ad7:	8b 40 08             	mov    eax,DWORD PTR [eax+0x8]
 8048ada:	89 45 ec             	mov    DWORD PTR [ebp-0x14],eax
 8048add:	8b 45 08             	mov    eax,DWORD PTR [ebp+0x8]
 8048ae0:	8b 40 0c             	mov    eax,DWORD PTR [eax+0xc]
 8048ae3:	89 45 e8             	mov    DWORD PTR [ebp-0x18],eax
 8048ae6:	8b 45 08             	mov    eax,DWORD PTR [ebp+0x8]
 8048ae9:	8b 40 14             	mov    eax,DWORD PTR [eax+0x14]
 8048aec:	89 45 f4             	mov    DWORD PTR [ebp-0xc],eax
 8048aef:	8b 45 e8             	mov    eax,DWORD PTR [ebp-0x18]
 8048af2:	89 04 24             	mov    DWORD PTR [esp],eax
 8048af5:	e8 66 fc ff ff       	call   8048760 <setgid@plt>
 8048afa:	83 f8 ff             	cmp    eax,0xffffffff
 8048afd:	75 09                	jne    8048b08 <exit@plt+0x388>
 8048aff:	c7 45 f0 ff ff ff ff 	mov    DWORD PTR [ebp-0x10],0xffffffff
 8048b06:	eb 6b                	jmp    8048b73 <exit@plt+0x3f3>
 8048b08:	8b 45 ec             	mov    eax,DWORD PTR [ebp-0x14]
 8048b0b:	89 04 24             	mov    DWORD PTR [esp],eax
 8048b0e:	e8 9d fb ff ff       	call   80486b0 <setuid@plt>
 8048b13:	83 f8 ff             	cmp    eax,0xffffffff
 8048b16:	75 09                	jne    8048b21 <exit@plt+0x3a1>
 8048b18:	c7 45 f0 ff ff ff ff 	mov    DWORD PTR [ebp-0x10],0xffffffff
 8048b1f:	eb 52                	jmp    8048b73 <exit@plt+0x3f3>
 8048b21:	8b 45 ec             	mov    eax,DWORD PTR [ebp-0x14]
 8048b24:	89 04 24             	mov    DWORD PTR [esp],eax
 8048b27:	e8 24 fc ff ff       	call   8048750 <seteuid@plt>
 8048b2c:	83 f8 ff             	cmp    eax,0xffffffff
 8048b2f:	75 09                	jne    8048b3a <exit@plt+0x3ba>
 8048b31:	c7 45 f0 ff ff ff ff 	mov    DWORD PTR [ebp-0x10],0xffffffff
 8048b38:	eb 39                	jmp    8048b73 <exit@plt+0x3f3>
 8048b3a:	8b 45 e8             	mov    eax,DWORD PTR [ebp-0x18]
 8048b3d:	89 04 24             	mov    DWORD PTR [esp],eax
 8048b40:	e8 1b fb ff ff       	call   8048660 <setegid@plt>
 8048b45:	83 f8 ff             	cmp    eax,0xffffffff
 8048b48:	75 09                	jne    8048b53 <exit@plt+0x3d3>
 8048b4a:	c7 45 f0 ff ff ff ff 	mov    DWORD PTR [ebp-0x10],0xffffffff
 8048b51:	eb 20                	jmp    8048b73 <exit@plt+0x3f3>
 8048b53:	8b 45 f4             	mov    eax,DWORD PTR [ebp-0xc]
 8048b56:	89 04 24             	mov    DWORD PTR [esp],eax
 8048b59:	e8 72 fb ff ff       	call   80486d0 <chdir@plt>
 8048b5e:	83 f8 ff             	cmp    eax,0xffffffff
 8048b61:	75 09                	jne    8048b6c <exit@plt+0x3ec>
 8048b63:	c7 45 f0 ff ff ff ff 	mov    DWORD PTR [ebp-0x10],0xffffffff
 8048b6a:	eb 07                	jmp    8048b73 <exit@plt+0x3f3>
 8048b6c:	c7 45 f0 00 00 00 00 	mov    DWORD PTR [ebp-0x10],0x0
 8048b73:	8b 45 f0             	mov    eax,DWORD PTR [ebp-0x10]
 8048b76:	c9                   	leave  
 8048b77:	c3                   	ret    
 8048b78:	55                   	push   ebp
 8048b79:	89 e5                	mov    ebp,esp
 8048b7b:	83 ec 28             	sub    esp,0x28
 8048b7e:	c7 45 f0 00 00 00 00 	mov    DWORD PTR [ebp-0x10],0x0
 8048b85:	c7 45 f4 00 00 00 00 	mov    DWORD PTR [ebp-0xc],0x0
 8048b8c:	eb 42                	jmp    8048bd0 <exit@plt+0x450>
 8048b8e:	8b 45 f0             	mov    eax,DWORD PTR [ebp-0x10]
 8048b91:	8b 55 10             	mov    edx,DWORD PTR [ebp+0x10]
 8048b94:	29 c2                	sub    edx,eax
 8048b96:	8b 45 f0             	mov    eax,DWORD PTR [ebp-0x10]
 8048b99:	8b 4d 0c             	mov    ecx,DWORD PTR [ebp+0xc]
 8048b9c:	8d 04 01             	lea    eax,[ecx+eax*1]
 8048b9f:	c7 44 24 0c 00 00 00 	mov    DWORD PTR [esp+0xc],0x0
 8048ba6:	00 
 8048ba7:	89 54 24 08          	mov    DWORD PTR [esp+0x8],edx
 8048bab:	89 44 24 04          	mov    DWORD PTR [esp+0x4],eax
 8048baf:	8b 45 08             	mov    eax,DWORD PTR [ebp+0x8]
 8048bb2:	89 04 24             	mov    DWORD PTR [esp],eax
 8048bb5:	e8 46 fb ff ff       	call   8048700 <send@plt>
 8048bba:	89 45 f4             	mov    DWORD PTR [ebp-0xc],eax
 8048bbd:	83 7d f4 00          	cmp    DWORD PTR [ebp-0xc],0x0
 8048bc1:	7f 07                	jg     8048bca <exit@plt+0x44a>
 8048bc3:	b8 ff ff ff ff       	mov    eax,0xffffffff
 8048bc8:	eb 11                	jmp    8048bdb <exit@plt+0x45b>
 8048bca:	8b 45 f4             	mov    eax,DWORD PTR [ebp-0xc]
 8048bcd:	01 45 f0             	add    DWORD PTR [ebp-0x10],eax
 8048bd0:	8b 45 10             	mov    eax,DWORD PTR [ebp+0x10]
 8048bd3:	3b 45 f0             	cmp    eax,DWORD PTR [ebp-0x10]
 8048bd6:	77 b6                	ja     8048b8e <exit@plt+0x40e>
 8048bd8:	8b 45 f0             	mov    eax,DWORD PTR [ebp-0x10]
 8048bdb:	c9                   	leave  
 8048bdc:	c3                   	ret    
 8048bdd:	55                   	push   ebp
 8048bde:	89 e5                	mov    ebp,esp
 8048be0:	83 ec 18             	sub    esp,0x18
 8048be3:	8b 45 0c             	mov    eax,DWORD PTR [ebp+0xc]
 8048be6:	89 04 24             	mov    DWORD PTR [esp],eax
 8048be9:	e8 d2 fa ff ff       	call   80486c0 <strlen@plt>
 8048bee:	89 44 24 08          	mov    DWORD PTR [esp+0x8],eax
 8048bf2:	8b 45 0c             	mov    eax,DWORD PTR [ebp+0xc]
 8048bf5:	89 44 24 04          	mov    DWORD PTR [esp+0x4],eax
 8048bf9:	8b 45 08             	mov    eax,DWORD PTR [ebp+0x8]
 8048bfc:	89 04 24             	mov    DWORD PTR [esp],eax
 8048bff:	e8 74 ff ff ff       	call   8048b78 <exit@plt+0x3f8>
 8048c04:	c9                   	leave  
 8048c05:	c3                   	ret    
 8048c06:	55                   	push   ebp
 8048c07:	89 e5                	mov    ebp,esp
 8048c09:	83 ec 28             	sub    esp,0x28
 8048c0c:	c7 45 f4 00 00 00 00 	mov    DWORD PTR [ebp-0xc],0x0
 8048c13:	c7 45 ec 00 00 00 00 	mov    DWORD PTR [ebp-0x14],0x0
 8048c1a:	8d 45 10             	lea    eax,[ebp+0x10]
 8048c1d:	89 45 f0             	mov    DWORD PTR [ebp-0x10],eax
 8048c20:	8b 45 f0             	mov    eax,DWORD PTR [ebp-0x10]
 8048c23:	89 44 24 08          	mov    DWORD PTR [esp+0x8],eax
 8048c27:	8b 45 0c             	mov    eax,DWORD PTR [ebp+0xc]
 8048c2a:	89 44 24 04          	mov    DWORD PTR [esp+0x4],eax
 8048c2e:	8d 45 ec             	lea    eax,[ebp-0x14]
 8048c31:	89 04 24             	mov    DWORD PTR [esp],eax
 8048c34:	e8 d7 fa ff ff       	call   8048710 <vasprintf@plt>
 8048c39:	89 45 f4             	mov    DWORD PTR [ebp-0xc],eax
 8048c3c:	83 7d f4 ff          	cmp    DWORD PTR [ebp-0xc],0xffffffff
 8048c40:	74 17                	je     8048c59 <exit@plt+0x4d9>
 8048c42:	8b 45 ec             	mov    eax,DWORD PTR [ebp-0x14]
 8048c45:	89 44 24 04          	mov    DWORD PTR [esp+0x4],eax
 8048c49:	8b 45 08             	mov    eax,DWORD PTR [ebp+0x8]
 8048c4c:	89 04 24             	mov    DWORD PTR [esp],eax
 8048c4f:	e8 89 ff ff ff       	call   8048bdd <exit@plt+0x45d>
 8048c54:	89 45 f4             	mov    DWORD PTR [ebp-0xc],eax
 8048c57:	eb 01                	jmp    8048c5a <exit@plt+0x4da>
 8048c59:	90                   	nop
 8048c5a:	8b 45 ec             	mov    eax,DWORD PTR [ebp-0x14]
 8048c5d:	89 04 24             	mov    DWORD PTR [esp],eax
 8048c60:	e8 1b fa ff ff       	call   8048680 <free@plt>
 8048c65:	8b 45 f4             	mov    eax,DWORD PTR [ebp-0xc]
 8048c68:	c9                   	leave  
 8048c69:	c3                   	ret    
 8048c6a:	55                   	push   ebp
 8048c6b:	89 e5                	mov    ebp,esp
 8048c6d:	83 ec 28             	sub    esp,0x28
 8048c70:	c7 45 ec 00 00 00 00 	mov    DWORD PTR [ebp-0x14],0x0
 8048c77:	c7 45 f4 00 00 00 00 	mov    DWORD PTR [ebp-0xc],0x0
 8048c7e:	83 7d 10 00          	cmp    DWORD PTR [ebp+0x10],0x0
 8048c82:	74 5f                	je     8048ce3 <exit@plt+0x563>
 8048c84:	c7 45 f0 00 00 00 00 	mov    DWORD PTR [ebp-0x10],0x0
 8048c8b:	eb 48                	jmp    8048cd5 <exit@plt+0x555>
 8048c8d:	8b 45 f0             	mov    eax,DWORD PTR [ebp-0x10]
 8048c90:	8b 55 10             	mov    edx,DWORD PTR [ebp+0x10]
 8048c93:	89 d1                	mov    ecx,edx
 8048c95:	29 c1                	sub    ecx,eax
 8048c97:	89 c8                	mov    eax,ecx
 8048c99:	8b 55 f0             	mov    edx,DWORD PTR [ebp-0x10]
 8048c9c:	8b 4d 0c             	mov    ecx,DWORD PTR [ebp+0xc]
 8048c9f:	8d 14 11             	lea    edx,[ecx+edx*1]
 8048ca2:	89 44 24 0c          	mov    DWORD PTR [esp+0xc],eax
 8048ca6:	c7 44 24 08 00 00 00 	mov    DWORD PTR [esp+0x8],0x0
 8048cad:	00 
 8048cae:	89 54 24 04          	mov    DWORD PTR [esp+0x4],edx
 8048cb2:	8b 45 08             	mov    eax,DWORD PTR [ebp+0x8]
 8048cb5:	89 04 24             	mov    DWORD PTR [esp],eax
 8048cb8:	e8 53 f9 ff ff       	call   8048610 <recv@plt>
 8048cbd:	89 45 f4             	mov    DWORD PTR [ebp-0xc],eax
 8048cc0:	83 7d f4 ff          	cmp    DWORD PTR [ebp-0xc],0xffffffff
 8048cc4:	75 09                	jne    8048ccf <exit@plt+0x54f>
 8048cc6:	c7 45 ec ff ff ff ff 	mov    DWORD PTR [ebp-0x14],0xffffffff
 8048ccd:	eb 0e                	jmp    8048cdd <exit@plt+0x55d>
 8048ccf:	8b 45 f4             	mov    eax,DWORD PTR [ebp-0xc]
 8048cd2:	01 45 f0             	add    DWORD PTR [ebp-0x10],eax
 8048cd5:	8b 45 f0             	mov    eax,DWORD PTR [ebp-0x10]
 8048cd8:	3b 45 10             	cmp    eax,DWORD PTR [ebp+0x10]
 8048cdb:	72 b0                	jb     8048c8d <exit@plt+0x50d>
 8048cdd:	8b 45 f0             	mov    eax,DWORD PTR [ebp-0x10]
 8048ce0:	89 45 ec             	mov    DWORD PTR [ebp-0x14],eax
 8048ce3:	8b 45 ec             	mov    eax,DWORD PTR [ebp-0x14]
 8048ce6:	c9                   	leave  
 8048ce7:	c3                   	ret    
 8048ce8:	55                   	push   ebp
 8048ce9:	89 e5                	mov    ebp,esp
 8048ceb:	83 ec 38             	sub    esp,0x38
 8048cee:	8b 45 14             	mov    eax,DWORD PTR [ebp+0x14]
 8048cf1:	88 45 e4             	mov    BYTE PTR [ebp-0x1c],al
 8048cf4:	c7 45 f0 00 00 00 00 	mov    DWORD PTR [ebp-0x10],0x0
 8048cfb:	c7 45 f4 00 00 00 00 	mov    DWORD PTR [ebp-0xc],0x0
 8048d02:	eb 4c                	jmp    8048d50 <exit@plt+0x5d0>
 8048d04:	c7 44 24 08 01 00 00 	mov    DWORD PTR [esp+0x8],0x1
 8048d0b:	00 
 8048d0c:	8d 45 ef             	lea    eax,[ebp-0x11]
 8048d0f:	89 44 24 04          	mov    DWORD PTR [esp+0x4],eax
 8048d13:	8b 45 08             	mov    eax,DWORD PTR [ebp+0x8]
 8048d16:	89 04 24             	mov    DWORD PTR [esp],eax
 8048d19:	e8 52 f9 ff ff       	call   8048670 <read@plt>
 8048d1e:	85 c0                	test   eax,eax
 8048d20:	7e 25                	jle    8048d47 <exit@plt+0x5c7>
 8048d22:	0f b6 45 ef          	movzx  eax,BYTE PTR [ebp-0x11]
 8048d26:	3a 45 e4             	cmp    al,BYTE PTR [ebp-0x1c]
 8048d29:	75 08                	jne    8048d33 <exit@plt+0x5b3>
 8048d2b:	8b 45 f4             	mov    eax,DWORD PTR [ebp-0xc]
 8048d2e:	89 45 f0             	mov    DWORD PTR [ebp-0x10],eax
 8048d31:	eb 25                	jmp    8048d58 <exit@plt+0x5d8>
 8048d33:	8b 45 f4             	mov    eax,DWORD PTR [ebp-0xc]
 8048d36:	8b 55 0c             	mov    edx,DWORD PTR [ebp+0xc]
 8048d39:	01 c2                	add    edx,eax
 8048d3b:	0f b6 45 ef          	movzx  eax,BYTE PTR [ebp-0x11]
 8048d3f:	88 02                	mov    BYTE PTR [edx],al
 8048d41:	83 45 f4 01          	add    DWORD PTR [ebp-0xc],0x1
 8048d45:	eb 09                	jmp    8048d50 <exit@plt+0x5d0>
 8048d47:	c7 45 f0 ff ff ff ff 	mov    DWORD PTR [ebp-0x10],0xffffffff
 8048d4e:	eb 08                	jmp    8048d58 <exit@plt+0x5d8>
 8048d50:	8b 45 f4             	mov    eax,DWORD PTR [ebp-0xc]
 8048d53:	3b 45 10             	cmp    eax,DWORD PTR [ebp+0x10]
 8048d56:	72 ac                	jb     8048d04 <exit@plt+0x584>
 8048d58:	8b 45 f0             	mov    eax,DWORD PTR [ebp-0x10]
 8048d5b:	c9                   	leave  
 8048d5c:	c3                   	ret    
 8048d5d:	90                   	nop
 8048d5e:	90                   	nop
 8048d5f:	90                   	nop
 8048d60:	55                   	push   ebp
 8048d61:	89 e5                	mov    ebp,esp
 8048d63:	81 ec 38 10 00 00    	sub    esp,0x1038
 8048d69:	8d 85 e0 ef ff ff    	lea    eax,[ebp-0x1020]
 8048d6f:	89 45 e0             	mov    DWORD PTR [ebp-0x20],eax
 8048d72:	8b 45 08             	mov    eax,DWORD PTR [ebp+0x8]
 8048d75:	89 45 e4             	mov    DWORD PTR [ebp-0x1c],eax
 8048d78:	c7 44 24 08 00 10 00 	mov    DWORD PTR [esp+0x8],0x1000
 8048d7f:	00 
 8048d80:	c7 44 24 04 00 00 00 	mov    DWORD PTR [esp+0x4],0x0
 8048d87:	00 
 8048d88:	8d 85 e0 ef ff ff    	lea    eax,[ebp-0x1020]
 8048d8e:	89 04 24             	mov    DWORD PTR [esp],eax
 8048d91:	e8 9a f8 ff ff       	call   8048630 <memset@plt>
 8048d96:	c7 45 e8 00 00 00 01 	mov    DWORD PTR [ebp-0x18],0x1000000
 8048d9d:	e9 64 01 00 00       	jmp    8048f06 <exit@plt+0x786>
 8048da2:	8b 45 e4             	mov    eax,DWORD PTR [ebp-0x1c]
 8048da5:	0f b6 00             	movzx  eax,BYTE PTR [eax]
 8048da8:	88 45 ef             	mov    BYTE PTR [ebp-0x11],al
 8048dab:	83 45 e4 01          	add    DWORD PTR [ebp-0x1c],0x1
 8048daf:	0f be 45 ef          	movsx  eax,BYTE PTR [ebp-0x11]
 8048db3:	83 f8 3c             	cmp    eax,0x3c
 8048db6:	74 4c                	je     8048e04 <exit@plt+0x684>
 8048db8:	83 f8 3c             	cmp    eax,0x3c
 8048dbb:	7f 27                	jg     8048de4 <exit@plt+0x664>
 8048dbd:	83 f8 2d             	cmp    eax,0x2d
 8048dc0:	74 5e                	je     8048e20 <exit@plt+0x6a0>
 8048dc2:	83 f8 2d             	cmp    eax,0x2d
 8048dc5:	7f 13                	jg     8048dda <exit@plt+0x65a>
 8048dc7:	83 f8 0a             	cmp    eax,0xa
 8048dca:	0f 84 42 01 00 00    	je     8048f12 <exit@plt+0x792>
 8048dd0:	83 f8 2b             	cmp    eax,0x2b
 8048dd3:	74 38                	je     8048e0d <exit@plt+0x68d>
 8048dd5:	e9 28 01 00 00       	jmp    8048f02 <exit@plt+0x782>
 8048dda:	83 f8 2e             	cmp    eax,0x2e
 8048ddd:	74 54                	je     8048e33 <exit@plt+0x6b3>
 8048ddf:	e9 1e 01 00 00       	jmp    8048f02 <exit@plt+0x782>
 8048de4:	83 f8 5b             	cmp    eax,0x5b
 8048de7:	74 7a                	je     8048e63 <exit@plt+0x6e3>
 8048de9:	83 f8 5d             	cmp    eax,0x5d
 8048dec:	0f 84 be 00 00 00    	je     8048eb0 <exit@plt+0x730>
 8048df2:	83 f8 3e             	cmp    eax,0x3e
 8048df5:	0f 85 07 01 00 00    	jne    8048f02 <exit@plt+0x782>
 8048dfb:	83 45 e0 01          	add    DWORD PTR [ebp-0x20],0x1
 8048dff:	e9 fe 00 00 00       	jmp    8048f02 <exit@plt+0x782>
 8048e04:	83 6d e0 01          	sub    DWORD PTR [ebp-0x20],0x1
 8048e08:	e9 f5 00 00 00       	jmp    8048f02 <exit@plt+0x782>
 8048e0d:	8b 45 e0             	mov    eax,DWORD PTR [ebp-0x20]
 8048e10:	0f b6 00             	movzx  eax,BYTE PTR [eax]
 8048e13:	8d 50 01             	lea    edx,[eax+0x1]
 8048e16:	8b 45 e0             	mov    eax,DWORD PTR [ebp-0x20]
 8048e19:	88 10                	mov    BYTE PTR [eax],dl
 8048e1b:	e9 e2 00 00 00       	jmp    8048f02 <exit@plt+0x782>
 8048e20:	8b 45 e0             	mov    eax,DWORD PTR [ebp-0x20]
 8048e23:	0f b6 00             	movzx  eax,BYTE PTR [eax]
 8048e26:	8d 50 ff             	lea    edx,[eax-0x1]
 8048e29:	8b 45 e0             	mov    eax,DWORD PTR [ebp-0x20]
 8048e2c:	88 10                	mov    BYTE PTR [eax],dl
 8048e2e:	e9 cf 00 00 00       	jmp    8048f02 <exit@plt+0x782>
 8048e33:	c7 44 24 0c 00 00 00 	mov    DWORD PTR [esp+0xc],0x0
 8048e3a:	00 
 8048e3b:	c7 44 24 08 01 00 00 	mov    DWORD PTR [esp+0x8],0x1
 8048e42:	00 
 8048e43:	8b 45 e0             	mov    eax,DWORD PTR [ebp-0x20]
 8048e46:	89 44 24 04          	mov    DWORD PTR [esp+0x4],eax
 8048e4a:	8b 45 0c             	mov    eax,DWORD PTR [ebp+0xc]
 8048e4d:	89 04 24             	mov    DWORD PTR [esp],eax
 8048e50:	e8 ab f8 ff ff       	call   8048700 <send@plt>
 8048e55:	83 f8 01             	cmp    eax,0x1
 8048e58:	0f 84 9d 00 00 00    	je     8048efb <exit@plt+0x77b>
 8048e5e:	e9 b6 00 00 00       	jmp    8048f19 <exit@plt+0x799>
 8048e63:	8b 45 e0             	mov    eax,DWORD PTR [ebp-0x20]
 8048e66:	0f b6 00             	movzx  eax,BYTE PTR [eax]
 8048e69:	84 c0                	test   al,al
 8048e6b:	0f 85 8d 00 00 00    	jne    8048efe <exit@plt+0x77e>
 8048e71:	c7 45 f0 01 00 00 00 	mov    DWORD PTR [ebp-0x10],0x1
 8048e78:	eb 2e                	jmp    8048ea8 <exit@plt+0x728>
 8048e7a:	8b 45 e4             	mov    eax,DWORD PTR [ebp-0x1c]
 8048e7d:	0f b6 00             	movzx  eax,BYTE PTR [eax]
 8048e80:	3c 0a                	cmp    al,0xa
 8048e82:	0f 84 8d 00 00 00    	je     8048f15 <exit@plt+0x795>
 8048e88:	8b 45 e4             	mov    eax,DWORD PTR [ebp-0x1c]
 8048e8b:	0f b6 00             	movzx  eax,BYTE PTR [eax]
 8048e8e:	3c 5b                	cmp    al,0x5b
 8048e90:	75 04                	jne    8048e96 <exit@plt+0x716>
 8048e92:	83 45 f0 01          	add    DWORD PTR [ebp-0x10],0x1
 8048e96:	8b 45 e4             	mov    eax,DWORD PTR [ebp-0x1c]
 8048e99:	0f b6 00             	movzx  eax,BYTE PTR [eax]
 8048e9c:	3c 5d                	cmp    al,0x5d
 8048e9e:	75 04                	jne    8048ea4 <exit@plt+0x724>
 8048ea0:	83 6d f0 01          	sub    DWORD PTR [ebp-0x10],0x1
 8048ea4:	83 45 e4 01          	add    DWORD PTR [ebp-0x1c],0x1
 8048ea8:	83 7d f0 00          	cmp    DWORD PTR [ebp-0x10],0x0
 8048eac:	7f cc                	jg     8048e7a <exit@plt+0x6fa>
 8048eae:	eb 52                	jmp    8048f02 <exit@plt+0x782>
 8048eb0:	8b 45 e0             	mov    eax,DWORD PTR [ebp-0x20]
 8048eb3:	0f b6 00             	movzx  eax,BYTE PTR [eax]
 8048eb6:	84 c0                	test   al,al
 8048eb8:	74 47                	je     8048f01 <exit@plt+0x781>
 8048eba:	83 6d e4 02          	sub    DWORD PTR [ebp-0x1c],0x2
 8048ebe:	c7 45 f4 01 00 00 00 	mov    DWORD PTR [ebp-0xc],0x1
 8048ec5:	eb 28                	jmp    8048eef <exit@plt+0x76f>
 8048ec7:	8b 45 e4             	mov    eax,DWORD PTR [ebp-0x1c]
 8048eca:	3b 45 08             	cmp    eax,DWORD PTR [ebp+0x8]
 8048ecd:	72 49                	jb     8048f18 <exit@plt+0x798>
 8048ecf:	8b 45 e4             	mov    eax,DWORD PTR [ebp-0x1c]
 8048ed2:	0f b6 00             	movzx  eax,BYTE PTR [eax]
 8048ed5:	3c 5b                	cmp    al,0x5b
 8048ed7:	75 04                	jne    8048edd <exit@plt+0x75d>
 8048ed9:	83 6d f4 01          	sub    DWORD PTR [ebp-0xc],0x1
 8048edd:	8b 45 e4             	mov    eax,DWORD PTR [ebp-0x1c]
 8048ee0:	0f b6 00             	movzx  eax,BYTE PTR [eax]
 8048ee3:	3c 5d                	cmp    al,0x5d
 8048ee5:	75 04                	jne    8048eeb <exit@plt+0x76b>
 8048ee7:	83 45 f4 01          	add    DWORD PTR [ebp-0xc],0x1
 8048eeb:	83 6d e4 01          	sub    DWORD PTR [ebp-0x1c],0x1
 8048eef:	83 7d f4 00          	cmp    DWORD PTR [ebp-0xc],0x0
 8048ef3:	7f d2                	jg     8048ec7 <exit@plt+0x747>
 8048ef5:	83 45 e4 02          	add    DWORD PTR [ebp-0x1c],0x2
 8048ef9:	eb 07                	jmp    8048f02 <exit@plt+0x782>
 8048efb:	90                   	nop
 8048efc:	eb 04                	jmp    8048f02 <exit@plt+0x782>
 8048efe:	90                   	nop
 8048eff:	eb 01                	jmp    8048f02 <exit@plt+0x782>
 8048f01:	90                   	nop
 8048f02:	83 6d e8 01          	sub    DWORD PTR [ebp-0x18],0x1
 8048f06:	83 7d e8 00          	cmp    DWORD PTR [ebp-0x18],0x0
 8048f0a:	0f 85 92 fe ff ff    	jne    8048da2 <exit@plt+0x622>
 8048f10:	eb 07                	jmp    8048f19 <exit@plt+0x799>
 8048f12:	90                   	nop
 8048f13:	eb 04                	jmp    8048f19 <exit@plt+0x799>
 8048f15:	90                   	nop
 8048f16:	eb 01                	jmp    8048f19 <exit@plt+0x799>
 8048f18:	90                   	nop
 8048f19:	c9                   	leave  
 8048f1a:	c3                   	ret    
 8048f1b:	55                   	push   ebp
 8048f1c:	89 e5                	mov    ebp,esp
 8048f1e:	81 ec 28 02 00 00    	sub    esp,0x228
 8048f24:	c7 44 24 0c 0a 00 00 	mov    DWORD PTR [esp+0xc],0xa
 8048f2b:	00 
 8048f2c:	c7 44 24 08 ff 01 00 	mov    DWORD PTR [esp+0x8],0x1ff
 8048f33:	00 
 8048f34:	8d 85 f4 fd ff ff    	lea    eax,[ebp-0x20c]
 8048f3a:	89 44 24 04          	mov    DWORD PTR [esp+0x4],eax
 8048f3e:	8b 45 08             	mov    eax,DWORD PTR [ebp+0x8]
 8048f41:	89 04 24             	mov    DWORD PTR [esp],eax
 8048f44:	e8 9f fd ff ff       	call   8048ce8 <exit@plt+0x568>
 8048f49:	89 45 f4             	mov    DWORD PTR [ebp-0xc],eax
 8048f4c:	83 7d f4 00          	cmp    DWORD PTR [ebp-0xc],0x0
 8048f50:	7f 07                	jg     8048f59 <exit@plt+0x7d9>
 8048f52:	b8 00 00 00 00       	mov    eax,0x0
 8048f57:	c9                   	leave  
 8048f58:	c3                   	ret    
 8048f59:	8b 45 f4             	mov    eax,DWORD PTR [ebp-0xc]
 8048f5c:	c6 84 05 f4 fd ff ff 	mov    BYTE PTR [ebp+eax*1-0x20c],0xa
 8048f63:	0a 
 8048f64:	8b 45 08             	mov    eax,DWORD PTR [ebp+0x8]
 8048f67:	89 44 24 04          	mov    DWORD PTR [esp+0x4],eax
 8048f6b:	8d 85 f4 fd ff ff    	lea    eax,[ebp-0x20c]
 8048f71:	89 04 24             	mov    DWORD PTR [esp],eax
 8048f74:	e8 e7 fd ff ff       	call   8048d60 <exit@plt+0x5e0>
 8048f79:	eb a9                	jmp    8048f24 <exit@plt+0x7a4>
 8048f7b:	90                   	nop
 8048f7c:	90                   	nop
 8048f7d:	90                   	nop
 8048f7e:	90                   	nop
 8048f7f:	90                   	nop
 8048f80:	55                   	push   ebp
 8048f81:	89 e5                	mov    ebp,esp
 8048f83:	5d                   	pop    ebp
 8048f84:	c3                   	ret    
 8048f85:	8d 74 26 00          	lea    esi,[esi+eiz*1+0x0]
 8048f89:	8d bc 27 00 00 00 00 	lea    edi,[edi+eiz*1+0x0]
 8048f90:	55                   	push   ebp
 8048f91:	89 e5                	mov    ebp,esp
 8048f93:	57                   	push   edi
 8048f94:	56                   	push   esi
 8048f95:	53                   	push   ebx
 8048f96:	e8 4f 00 00 00       	call   8048fea <exit@plt+0x86a>
 8048f9b:	81 c3 59 20 00 00    	add    ebx,0x2059
 8048fa1:	83 ec 1c             	sub    esp,0x1c
 8048fa4:	e8 f7 f5 ff ff       	call   80485a0 <err@plt-0x40>
 8048fa9:	8d bb 20 ff ff ff    	lea    edi,[ebx-0xe0]
 8048faf:	8d 83 20 ff ff ff    	lea    eax,[ebx-0xe0]
 8048fb5:	29 c7                	sub    edi,eax
 8048fb7:	c1 ff 02             	sar    edi,0x2
 8048fba:	85 ff                	test   edi,edi
 8048fbc:	74 24                	je     8048fe2 <exit@plt+0x862>
 8048fbe:	31 f6                	xor    esi,esi
 8048fc0:	8b 45 10             	mov    eax,DWORD PTR [ebp+0x10]
 8048fc3:	89 44 24 08          	mov    DWORD PTR [esp+0x8],eax
 8048fc7:	8b 45 0c             	mov    eax,DWORD PTR [ebp+0xc]
 8048fca:	89 44 24 04          	mov    DWORD PTR [esp+0x4],eax
 8048fce:	8b 45 08             	mov    eax,DWORD PTR [ebp+0x8]
 8048fd1:	89 04 24             	mov    DWORD PTR [esp],eax
 8048fd4:	ff 94 b3 20 ff ff ff 	call   DWORD PTR [ebx+esi*4-0xe0]
 8048fdb:	83 c6 01             	add    esi,0x1
 8048fde:	39 fe                	cmp    esi,edi
 8048fe0:	72 de                	jb     8048fc0 <exit@plt+0x840>
 8048fe2:	83 c4 1c             	add    esp,0x1c
 8048fe5:	5b                   	pop    ebx
 8048fe6:	5e                   	pop    esi
 8048fe7:	5f                   	pop    edi
 8048fe8:	5d                   	pop    ebp
 8048fe9:	c3                   	ret    
 8048fea:	8b 1c 24             	mov    ebx,DWORD PTR [esp]
 8048fed:	c3                   	ret    
 8048fee:	90                   	nop
 8048fef:	90                   	nop
 8048ff0:	55                   	push   ebp
 8048ff1:	89 e5                	mov    ebp,esp
 8048ff3:	53                   	push   ebx
 8048ff4:	83 ec 04             	sub    esp,0x4
 8048ff7:	a1 14 af 04 08       	mov    eax,ds:0x804af14
 8048ffc:	83 f8 ff             	cmp    eax,0xffffffff
 8048fff:	74 13                	je     8049014 <exit@plt+0x894>
 8049001:	bb 14 af 04 08       	mov    ebx,0x804af14
 8049006:	66 90                	xchg   ax,ax
 8049008:	83 eb 04             	sub    ebx,0x4
 804900b:	ff d0                	call   eax
 804900d:	8b 03                	mov    eax,DWORD PTR [ebx]
 804900f:	83 f8 ff             	cmp    eax,0xffffffff
 8049012:	75 f4                	jne    8049008 <exit@plt+0x888>
 8049014:	83 c4 04             	add    esp,0x4
 8049017:	5b                   	pop    ebx
 8049018:	5d                   	pop    ebp
 8049019:	c3                   	ret    
 804901a:	90                   	nop
 804901b:	90                   	nop

frak:     file format elf32-i386


Disassembly of section .init:

080485a0 <.init>:
 80485a0:	55                   	push   ebp
 80485a1:	89 e5                	mov    ebp,esp
 80485a3:	53                   	push   ebx
 80485a4:	83 ec 04             	sub    esp,0x4
 80485a7:	e8 00 00 00 00       	call   80485ac <err@plt-0x34>
 80485ac:	5b                   	pop    ebx
 80485ad:	81 c3 48 2a 00 00    	add    ebx,0x2a48
 80485b3:	8b 93 fc ff ff ff    	mov    edx,DWORD PTR [ebx-0x4]
 80485b9:	85 d2                	test   edx,edx
 80485bb:	74 05                	je     80485c2 <err@plt-0x1e>
 80485bd:	e8 3e 00 00 00       	call   8048600 <__gmon_start__@plt>
 80485c2:	e8 59 02 00 00       	call   8048820 <exit@plt+0xa0>
 80485c7:	e8 24 0a 00 00       	call   8048ff0 <exit@plt+0x870>
 80485cc:	58                   	pop    eax
 80485cd:	5b                   	pop    ebx
 80485ce:	c9                   	leave  
 80485cf:	c3                   	ret    

Disassembly of section .plt:

080485d0 <err@plt-0x10>:
 80485d0:	ff 35 f8 af 04 08    	push   DWORD PTR ds:0x804aff8
 80485d6:	ff 25 fc af 04 08    	jmp    DWORD PTR ds:0x804affc
 80485dc:	00 00                	add    BYTE PTR [eax],al
	...

080485e0 <err@plt>:
 80485e0:	ff 25 00 b0 04 08    	jmp    DWORD PTR ds:0x804b000
 80485e6:	68 00 00 00 00       	push   0x0
 80485eb:	e9 e0 ff ff ff       	jmp    80485d0 <err@plt-0x10>

080485f0 <signal@plt>:
 80485f0:	ff 25 04 b0 04 08    	jmp    DWORD PTR ds:0x804b004
 80485f6:	68 08 00 00 00       	push   0x8
 80485fb:	e9 d0 ff ff ff       	jmp    80485d0 <err@plt-0x10>

08048600 <__gmon_start__@plt>:
 8048600:	ff 25 08 b0 04 08    	jmp    DWORD PTR ds:0x804b008
 8048606:	68 10 00 00 00       	push   0x10
 804860b:	e9 c0 ff ff ff       	jmp    80485d0 <err@plt-0x10>

08048610 <recv@plt>:
 8048610:	ff 25 0c b0 04 08    	jmp    DWORD PTR ds:0x804b00c
 8048616:	68 18 00 00 00       	push   0x18
 804861b:	e9 b0 ff ff ff       	jmp    80485d0 <err@plt-0x10>

08048620 <listen@plt>:
 8048620:	ff 25 10 b0 04 08    	jmp    DWORD PTR ds:0x804b010
 8048626:	68 20 00 00 00       	push   0x20
 804862b:	e9 a0 ff ff ff       	jmp    80485d0 <err@plt-0x10>

08048630 <memset@plt>:
 8048630:	ff 25 14 b0 04 08    	jmp    DWORD PTR ds:0x804b014
 8048636:	68 28 00 00 00       	push   0x28
 804863b:	e9 90 ff ff ff       	jmp    80485d0 <err@plt-0x10>

08048640 <__libc_start_main@plt>:
 8048640:	ff 25 18 b0 04 08    	jmp    DWORD PTR ds:0x804b018
 8048646:	68 30 00 00 00       	push   0x30
 804864b:	e9 80 ff ff ff       	jmp    80485d0 <err@plt-0x10>

08048650 <htons@plt>:
 8048650:	ff 25 1c b0 04 08    	jmp    DWORD PTR ds:0x804b01c
 8048656:	68 38 00 00 00       	push   0x38
 804865b:	e9 70 ff ff ff       	jmp    80485d0 <err@plt-0x10>

08048660 <setegid@plt>:
 8048660:	ff 25 20 b0 04 08    	jmp    DWORD PTR ds:0x804b020
 8048666:	68 40 00 00 00       	push   0x40
 804866b:	e9 60 ff ff ff       	jmp    80485d0 <err@plt-0x10>

08048670 <read@plt>:
 8048670:	ff 25 24 b0 04 08    	jmp    DWORD PTR ds:0x804b024
 8048676:	68 48 00 00 00       	push   0x48
 804867b:	e9 50 ff ff ff       	jmp    80485d0 <err@plt-0x10>

08048680 <free@plt>:
 8048680:	ff 25 28 b0 04 08    	jmp    DWORD PTR ds:0x804b028
 8048686:	68 50 00 00 00       	push   0x50
 804868b:	e9 40 ff ff ff       	jmp    80485d0 <err@plt-0x10>

08048690 <accept@plt>:
 8048690:	ff 25 2c b0 04 08    	jmp    DWORD PTR ds:0x804b02c
 8048696:	68 58 00 00 00       	push   0x58
 804869b:	e9 30 ff ff ff       	jmp    80485d0 <err@plt-0x10>

080486a0 <socket@plt>:
 80486a0:	ff 25 30 b0 04 08    	jmp    DWORD PTR ds:0x804b030
 80486a6:	68 60 00 00 00       	push   0x60
 80486ab:	e9 20 ff ff ff       	jmp    80485d0 <err@plt-0x10>

080486b0 <setuid@plt>:
 80486b0:	ff 25 34 b0 04 08    	jmp    DWORD PTR ds:0x804b034
 80486b6:	68 68 00 00 00       	push   0x68
 80486bb:	e9 10 ff ff ff       	jmp    80485d0 <err@plt-0x10>

080486c0 <strlen@plt>:
 80486c0:	ff 25 38 b0 04 08    	jmp    DWORD PTR ds:0x804b038
 80486c6:	68 70 00 00 00       	push   0x70
 80486cb:	e9 00 ff ff ff       	jmp    80485d0 <err@plt-0x10>

080486d0 <chdir@plt>:
 80486d0:	ff 25 3c b0 04 08    	jmp    DWORD PTR ds:0x804b03c
 80486d6:	68 78 00 00 00       	push   0x78
 80486db:	e9 f0 fe ff ff       	jmp    80485d0 <err@plt-0x10>

080486e0 <bind@plt>:
 80486e0:	ff 25 40 b0 04 08    	jmp    DWORD PTR ds:0x804b040
 80486e6:	68 80 00 00 00       	push   0x80
 80486eb:	e9 e0 fe ff ff       	jmp    80485d0 <err@plt-0x10>

080486f0 <close@plt>:
 80486f0:	ff 25 44 b0 04 08    	jmp    DWORD PTR ds:0x804b044
 80486f6:	68 88 00 00 00       	push   0x88
 80486fb:	e9 d0 fe ff ff       	jmp    80485d0 <err@plt-0x10>

08048700 <send@plt>:
 8048700:	ff 25 48 b0 04 08    	jmp    DWORD PTR ds:0x804b048
 8048706:	68 90 00 00 00       	push   0x90
 804870b:	e9 c0 fe ff ff       	jmp    80485d0 <err@plt-0x10>

08048710 <vasprintf@plt>:
 8048710:	ff 25 4c b0 04 08    	jmp    DWORD PTR ds:0x804b04c
 8048716:	68 98 00 00 00       	push   0x98
 804871b:	e9 b0 fe ff ff       	jmp    80485d0 <err@plt-0x10>

08048720 <fork@plt>:
 8048720:	ff 25 50 b0 04 08    	jmp    DWORD PTR ds:0x804b050
 8048726:	68 a0 00 00 00       	push   0xa0
 804872b:	e9 a0 fe ff ff       	jmp    80485d0 <err@plt-0x10>

08048730 <setsockopt@plt>:
 8048730:	ff 25 54 b0 04 08    	jmp    DWORD PTR ds:0x804b054
 8048736:	68 a8 00 00 00       	push   0xa8
 804873b:	e9 90 fe ff ff       	jmp    80485d0 <err@plt-0x10>

08048740 <htonl@plt>:
 8048740:	ff 25 58 b0 04 08    	jmp    DWORD PTR ds:0x804b058
 8048746:	68 b0 00 00 00       	push   0xb0
 804874b:	e9 80 fe ff ff       	jmp    80485d0 <err@plt-0x10>

08048750 <seteuid@plt>:
 8048750:	ff 25 5c b0 04 08    	jmp    DWORD PTR ds:0x804b05c
 8048756:	68 b8 00 00 00       	push   0xb8
 804875b:	e9 70 fe ff ff       	jmp    80485d0 <err@plt-0x10>

08048760 <setgid@plt>:
 8048760:	ff 25 60 b0 04 08    	jmp    DWORD PTR ds:0x804b060
 8048766:	68 c0 00 00 00       	push   0xc0
 804876b:	e9 60 fe ff ff       	jmp    80485d0 <err@plt-0x10>

08048770 <getpwnam@plt>:
 8048770:	ff 25 64 b0 04 08    	jmp    DWORD PTR ds:0x804b064
 8048776:	68 c8 00 00 00       	push   0xc8
 804877b:	e9 50 fe ff ff       	jmp    80485d0 <err@plt-0x10>

08048780 <exit@plt>:
 8048780:	ff 25 68 b0 04 08    	jmp    DWORD PTR ds:0x804b068
 8048786:	68 d0 00 00 00       	push   0xd0
 804878b:	e9 40 fe ff ff       	jmp    80485d0 <err@plt-0x10>

Disassembly of section .text:

08048790 <.text>:
 8048790:	31 ed                	xor    ebp,ebp
 8048792:	5e                   	pop    esi
 8048793:	89 e1                	mov    ecx,esp
 8048795:	83 e4 f0             	and    esp,0xfffffff0
 8048798:	50                   	push   eax
 8048799:	54                   	push   esp
 804879a:	52                   	push   edx
 804879b:	68 80 8f 04 08       	push   0x8048f80
 80487a0:	68 90 8f 04 08       	push   0x8048f90
 80487a5:	51                   	push   ecx
 80487a6:	56                   	push   esi
 80487a7:	68 44 88 04 08       	push   0x8048844
 80487ac:	e8 8f fe ff ff       	call   8048640 <__libc_start_main@plt>
 80487b1:	f4                   	hlt    
 80487b2:	90                   	nop
 80487b3:	90                   	nop
 80487b4:	90                   	nop
 80487b5:	90                   	nop
 80487b6:	90                   	nop
 80487b7:	90                   	nop
 80487b8:	90                   	nop
 80487b9:	90                   	nop
 80487ba:	90                   	nop
 80487bb:	90                   	nop
 80487bc:	90                   	nop
 80487bd:	90                   	nop
 80487be:	90                   	nop
 80487bf:	90                   	nop
 80487c0:	55                   	push   ebp
 80487c1:	89 e5                	mov    ebp,esp
 80487c3:	53                   	push   ebx
 80487c4:	83 ec 04             	sub    esp,0x4
 80487c7:	80 3d 7c b0 04 08 00 	cmp    BYTE PTR ds:0x804b07c,0x0
 80487ce:	75 3f                	jne    804880f <exit@plt+0x8f>
 80487d0:	a1 80 b0 04 08       	mov    eax,ds:0x804b080
 80487d5:	bb 20 af 04 08       	mov    ebx,0x804af20
 80487da:	81 eb 1c af 04 08    	sub    ebx,0x804af1c
 80487e0:	c1 fb 02             	sar    ebx,0x2
 80487e3:	83 eb 01             	sub    ebx,0x1
 80487e6:	39 d8                	cmp    eax,ebx
 80487e8:	73 1e                	jae    8048808 <exit@plt+0x88>
 80487ea:	8d b6 00 00 00 00    	lea    esi,[esi+0x0]
 80487f0:	83 c0 01             	add    eax,0x1
 80487f3:	a3 80 b0 04 08       	mov    ds:0x804b080,eax
 80487f8:	ff 14 85 1c af 04 08 	call   DWORD PTR [eax*4+0x804af1c]
 80487ff:	a1 80 b0 04 08       	mov    eax,ds:0x804b080
 8048804:	39 d8                	cmp    eax,ebx
 8048806:	72 e8                	jb     80487f0 <exit@plt+0x70>
 8048808:	c6 05 7c b0 04 08 01 	mov    BYTE PTR ds:0x804b07c,0x1
 804880f:	83 c4 04             	add    esp,0x4
 8048812:	5b                   	pop    ebx
 8048813:	5d                   	pop    ebp
 8048814:	c3                   	ret    
 8048815:	8d 74 26 00          	lea    esi,[esi+eiz*1+0x0]
 8048819:	8d bc 27 00 00 00 00 	lea    edi,[edi+eiz*1+0x0]
 8048820:	55                   	push   ebp
 8048821:	89 e5                	mov    ebp,esp
 8048823:	83 ec 18             	sub    esp,0x18
 8048826:	a1 24 af 04 08       	mov    eax,ds:0x804af24
 804882b:	85 c0                	test   eax,eax
 804882d:	74 12                	je     8048841 <exit@plt+0xc1>
 804882f:	b8 00 00 00 00       	mov    eax,0x0
 8048834:	85 c0                	test   eax,eax
 8048836:	74 09                	je     8048841 <exit@plt+0xc1>
 8048838:	c7 04 24 24 af 04 08 	mov    DWORD PTR [esp],0x804af24
 804883f:	ff d0                	call   eax
 8048841:	c9                   	leave  
 8048842:	c3                   	ret    
 8048843:	90                   	nop
 8048844:	55                   	push   ebp
 8048845:	89 e5                	mov    ebp,esp
 8048847:	83 e4 f0             	and    esp,0xfffffff0
 804884a:	83 ec 20             	sub    esp,0x20
 804884d:	c7 44 24 1c 00 00 00 	mov    DWORD PTR [esp+0x1c],0x0
 8048854:	00 
 8048855:	a1 78 b0 04 08       	mov    eax,ds:0x804b078
 804885a:	0f b7 c0             	movzx  eax,ax
 804885d:	89 04 24             	mov    DWORD PTR [esp],eax
 8048860:	e8 1f 00 00 00       	call   8048884 <exit@plt+0x104>
 8048865:	89 44 24 1c          	mov    DWORD PTR [esp+0x1c],eax
 8048869:	c7 44 24 04 1b 8f 04 	mov    DWORD PTR [esp+0x4],0x8048f1b
 8048870:	08 
 8048871:	8b 44 24 1c          	mov    eax,DWORD PTR [esp+0x1c]
 8048875:	89 04 24             	mov    DWORD PTR [esp],eax
 8048878:	e8 5b 01 00 00       	call   80489d8 <exit@plt+0x258>
 804887d:	b8 00 00 00 00       	mov    eax,0x0
 8048882:	c9                   	leave  
 8048883:	c3                   	ret    
 8048884:	55                   	push   ebp
 8048885:	89 e5                	mov    ebp,esp
 8048887:	83 ec 58             	sub    esp,0x58
 804888a:	8b 45 08             	mov    eax,DWORD PTR [ebp+0x8]
 804888d:	66 89 45 d4          	mov    WORD PTR [ebp-0x2c],ax
 8048891:	c7 45 f4 00 00 00 00 	mov    DWORD PTR [ebp-0xc],0x0
 8048898:	c7 45 f0 01 00 00 00 	mov    DWORD PTR [ebp-0x10],0x1
 804889f:	66 c7 45 e0 02 00    	mov    WORD PTR [ebp-0x20],0x2
 80488a5:	0f b7 45 d4          	movzx  eax,WORD PTR [ebp-0x2c]
 80488a9:	89 04 24             	mov    DWORD PTR [esp],eax
 80488ac:	e8 9f fd ff ff       	call   8048650 <htons@plt>
 80488b1:	66 89 45 e2          	mov    WORD PTR [ebp-0x1e],ax
 80488b5:	c7 04 24 00 00 00 00 	mov    DWORD PTR [esp],0x0
 80488bc:	e8 7f fe ff ff       	call   8048740 <htonl@plt>
 80488c1:	89 45 e4             	mov    DWORD PTR [ebp-0x1c],eax
 80488c4:	c7 44 24 04 01 00 00 	mov    DWORD PTR [esp+0x4],0x1
 80488cb:	00 
 80488cc:	c7 04 24 11 00 00 00 	mov    DWORD PTR [esp],0x11
 80488d3:	e8 18 fd ff ff       	call   80485f0 <signal@plt>
 80488d8:	83 f8 ff             	cmp    eax,0xffffffff
 80488db:	75 14                	jne    80488f1 <exit@plt+0x171>
 80488dd:	c7 44 24 04 40 90 04 	mov    DWORD PTR [esp+0x4],0x8049040
 80488e4:	08 
 80488e5:	c7 04 24 ff ff ff ff 	mov    DWORD PTR [esp],0xffffffff
 80488ec:	e8 ef fc ff ff       	call   80485e0 <err@plt>
 80488f1:	c7 44 24 08 06 00 00 	mov    DWORD PTR [esp+0x8],0x6
 80488f8:	00 
 80488f9:	c7 44 24 04 01 00 00 	mov    DWORD PTR [esp+0x4],0x1
 8048900:	00 
 8048901:	c7 04 24 02 00 00 00 	mov    DWORD PTR [esp],0x2
 8048908:	e8 93 fd ff ff       	call   80486a0 <socket@plt>
 804890d:	89 45 f4             	mov    DWORD PTR [ebp-0xc],eax
 8048910:	83 7d f4 ff          	cmp    DWORD PTR [ebp-0xc],0xffffffff
 8048914:	75 14                	jne    804892a <exit@plt+0x1aa>
 8048916:	c7 44 24 04 5e 90 04 	mov    DWORD PTR [esp+0x4],0x804905e
 804891d:	08 
 804891e:	c7 04 24 ff ff ff ff 	mov    DWORD PTR [esp],0xffffffff
 8048925:	e8 b6 fc ff ff       	call   80485e0 <err@plt>
 804892a:	c7 44 24 10 04 00 00 	mov    DWORD PTR [esp+0x10],0x4
 8048931:	00 
 8048932:	8d 45 f0             	lea    eax,[ebp-0x10]
 8048935:	89 44 24 0c          	mov    DWORD PTR [esp+0xc],eax
 8048939:	c7 44 24 08 02 00 00 	mov    DWORD PTR [esp+0x8],0x2
 8048940:	00 
 8048941:	c7 44 24 04 01 00 00 	mov    DWORD PTR [esp+0x4],0x1
 8048948:	00 
 8048949:	8b 45 f4             	mov    eax,DWORD PTR [ebp-0xc]
 804894c:	89 04 24             	mov    DWORD PTR [esp],eax
 804894f:	e8 dc fd ff ff       	call   8048730 <setsockopt@plt>
 8048954:	83 f8 ff             	cmp    eax,0xffffffff
 8048957:	75 14                	jne    804896d <exit@plt+0x1ed>
 8048959:	c7 44 24 04 76 90 04 	mov    DWORD PTR [esp+0x4],0x8049076
 8048960:	08 
 8048961:	c7 04 24 ff ff ff ff 	mov    DWORD PTR [esp],0xffffffff
 8048968:	e8 73 fc ff ff       	call   80485e0 <err@plt>
 804896d:	8d 55 e0             	lea    edx,[ebp-0x20]
 8048970:	b8 00 00 00 00       	mov    eax,0x0
 8048975:	89 d0                	mov    eax,edx
 8048977:	c7 44 24 08 10 00 00 	mov    DWORD PTR [esp+0x8],0x10
 804897e:	00 
 804897f:	89 44 24 04          	mov    DWORD PTR [esp+0x4],eax
 8048983:	8b 45 f4             	mov    eax,DWORD PTR [ebp-0xc]
 8048986:	89 04 24             	mov    DWORD PTR [esp],eax
 8048989:	e8 52 fd ff ff       	call   80486e0 <bind@plt>
 804898e:	83 f8 ff             	cmp    eax,0xffffffff
 8048991:	75 14                	jne    80489a7 <exit@plt+0x227>
 8048993:	c7 44 24 04 8a 90 04 	mov    DWORD PTR [esp+0x4],0x804908a
 804899a:	08 
 804899b:	c7 04 24 ff ff ff ff 	mov    DWORD PTR [esp],0xffffffff
 80489a2:	e8 39 fc ff ff       	call   80485e0 <err@plt>
 80489a7:	c7 44 24 04 14 00 00 	mov    DWORD PTR [esp+0x4],0x14
 80489ae:	00 
 80489af:	8b 45 f4             	mov    eax,DWORD PTR [ebp-0xc]
 80489b2:	89 04 24             	mov    DWORD PTR [esp],eax
 80489b5:	e8 66 fc ff ff       	call   8048620 <listen@plt>
 80489ba:	83 f8 ff             	cmp    eax,0xffffffff
 80489bd:	75 14                	jne    80489d3 <exit@plt+0x253>
 80489bf:	c7 44 24 04 a0 90 04 	mov    DWORD PTR [esp+0x4],0x80490a0
 80489c6:	08 
 80489c7:	c7 04 24 ff ff ff ff 	mov    DWORD PTR [esp],0xffffffff
 80489ce:	e8 0d fc ff ff       	call   80485e0 <err@plt>
 80489d3:	8b 45 f4             	mov    eax,DWORD PTR [ebp-0xc]
 80489d6:	c9                   	leave  
 80489d7:	c3                   	ret    
 80489d8:	55                   	push   ebp
 80489d9:	89 e5                	mov    ebp,esp
 80489db:	83 ec 28             	sub    esp,0x28
 80489de:	c7 45 f0 01 00 00 00 	mov    DWORD PTR [ebp-0x10],0x1
 80489e5:	eb 7b                	jmp    8048a62 <exit@plt+0x2e2>
 80489e7:	b8 00 00 00 00       	mov    eax,0x0
 80489ec:	c7 44 24 08 00 00 00 	mov    DWORD PTR [esp+0x8],0x0
 80489f3:	00 
 80489f4:	89 44 24 04          	mov    DWORD PTR [esp+0x4],eax
 80489f8:	8b 45 08             	mov    eax,DWORD PTR [ebp+0x8]
 80489fb:	89 04 24             	mov    DWORD PTR [esp],eax
 80489fe:	e8 8d fc ff ff       	call   8048690 <accept@plt>
 8048a03:	89 45 e8             	mov    DWORD PTR [ebp-0x18],eax
 8048a06:	83 7d e8 ff          	cmp    DWORD PTR [ebp-0x18],0xffffffff
 8048a0a:	74 52                	je     8048a5e <exit@plt+0x2de>
 8048a0c:	e8 0f fd ff ff       	call   8048720 <fork@plt>
 8048a11:	89 45 f4             	mov    DWORD PTR [ebp-0xc],eax
 8048a14:	83 7d f4 ff          	cmp    DWORD PTR [ebp-0xc],0xffffffff
 8048a18:	74 47                	je     8048a61 <exit@plt+0x2e1>
 8048a1a:	83 7d f4 00          	cmp    DWORD PTR [ebp-0xc],0x0
 8048a1e:	75 31                	jne    8048a51 <exit@plt+0x2d1>
 8048a20:	a1 74 b0 04 08       	mov    eax,ds:0x804b074
 8048a25:	89 04 24             	mov    DWORD PTR [esp],eax
 8048a28:	e8 41 00 00 00       	call   8048a6e <exit@plt+0x2ee>
 8048a2d:	8b 45 e8             	mov    eax,DWORD PTR [ebp-0x18]
 8048a30:	89 04 24             	mov    DWORD PTR [esp],eax
 8048a33:	8b 45 0c             	mov    eax,DWORD PTR [ebp+0xc]
 8048a36:	ff d0                	call   eax
 8048a38:	89 45 ec             	mov    DWORD PTR [ebp-0x14],eax
 8048a3b:	8b 45 e8             	mov    eax,DWORD PTR [ebp-0x18]
 8048a3e:	89 04 24             	mov    DWORD PTR [esp],eax
 8048a41:	e8 aa fc ff ff       	call   80486f0 <close@plt>
 8048a46:	8b 45 ec             	mov    eax,DWORD PTR [ebp-0x14]
 8048a49:	89 04 24             	mov    DWORD PTR [esp],eax
 8048a4c:	e8 2f fd ff ff       	call   8048780 <exit@plt>
 8048a51:	8b 45 e8             	mov    eax,DWORD PTR [ebp-0x18]
 8048a54:	89 04 24             	mov    DWORD PTR [esp],eax
 8048a57:	e8 94 fc ff ff       	call   80486f0 <close@plt>
 8048a5c:	eb 04                	jmp    8048a62 <exit@plt+0x2e2>
 8048a5e:	90                   	nop
 8048a5f:	eb 01                	jmp    8048a62 <exit@plt+0x2e2>
 8048a61:	90                   	nop
 8048a62:	83 7d f0 00          	cmp    DWORD PTR [ebp-0x10],0x0
 8048a66:	0f 85 7b ff ff ff    	jne    80489e7 <exit@plt+0x267>
 8048a6c:	c9                   	leave  
 8048a6d:	c3                   	ret    
 8048a6e:	55                   	push   ebp
 8048a6f:	89 e5                	mov    ebp,esp
 8048a71:	83 ec 28             	sub    esp,0x28
 8048a74:	8b 45 08             	mov    eax,DWORD PTR [ebp+0x8]
 8048a77:	89 04 24             	mov    DWORD PTR [esp],eax
 8048a7a:	e8 f1 fc ff ff       	call   8048770 <getpwnam@plt>
 8048a7f:	89 45 f4             	mov    DWORD PTR [ebp-0xc],eax
 8048a82:	83 7d f4 00          	cmp    DWORD PTR [ebp-0xc],0x0
 8048a86:	75 1b                	jne    8048aa3 <exit@plt+0x323>
 8048a88:	8b 45 08             	mov    eax,DWORD PTR [ebp+0x8]
 8048a8b:	89 44 24 08          	mov    DWORD PTR [esp+0x8],eax
 8048a8f:	c7 44 24 04 bb 90 04 	mov    DWORD PTR [esp+0x4],0x80490bb
 8048a96:	08 
 8048a97:	c7 04 24 ff ff ff ff 	mov    DWORD PTR [esp],0xffffffff
 8048a9e:	e8 3d fb ff ff       	call   80485e0 <err@plt>
 8048aa3:	8b 45 f4             	mov    eax,DWORD PTR [ebp-0xc]
 8048aa6:	89 04 24             	mov    DWORD PTR [esp],eax
 8048aa9:	e8 20 00 00 00       	call   8048ace <exit@plt+0x34e>
 8048aae:	83 f8 ff             	cmp    eax,0xffffffff
 8048ab1:	75 14                	jne    8048ac7 <exit@plt+0x347>
 8048ab3:	c7 44 24 04 d2 90 04 	mov    DWORD PTR [esp+0x4],0x80490d2
 8048aba:	08 
 8048abb:	c7 04 24 ff ff ff ff 	mov    DWORD PTR [esp],0xffffffff
 8048ac2:	e8 19 fb ff ff       	call   80485e0 <err@plt>
 8048ac7:	b8 00 00 00 00       	mov    eax,0x0
 8048acc:	c9                   	leave  
 8048acd:	c3                   	ret    
 8048ace:	55                   	push   ebp
 8048acf:	89 e5                	mov    ebp,esp
 8048ad1:	83 ec 28             	sub    esp,0x28
 8048ad4:	8b 45 08             	mov    eax,DWORD PTR [ebp+0x8]
 8048ad7:	8b 40 08             	mov    eax,DWORD PTR [eax+0x8]
 8048ada:	89 45 ec             	mov    DWORD PTR [ebp-0x14],eax
 8048add:	8b 45 08             	mov    eax,DWORD PTR [ebp+0x8]
 8048ae0:	8b 40 0c             	mov    eax,DWORD PTR [eax+0xc]
 8048ae3:	89 45 e8             	mov    DWORD PTR [ebp-0x18],eax
 8048ae6:	8b 45 08             	mov    eax,DWORD PTR [ebp+0x8]
 8048ae9:	8b 40 14             	mov    eax,DWORD PTR [eax+0x14]
 8048aec:	89 45 f4             	mov    DWORD PTR [ebp-0xc],eax
 8048aef:	8b 45 e8             	mov    eax,DWORD PTR [ebp-0x18]
 8048af2:	89 04 24             	mov    DWORD PTR [esp],eax
 8048af5:	e8 66 fc ff ff       	call   8048760 <setgid@plt>
 8048afa:	83 f8 ff             	cmp    eax,0xffffffff
 8048afd:	75 09                	jne    8048b08 <exit@plt+0x388>
 8048aff:	c7 45 f0 ff ff ff ff 	mov    DWORD PTR [ebp-0x10],0xffffffff
 8048b06:	eb 6b                	jmp    8048b73 <exit@plt+0x3f3>
 8048b08:	8b 45 ec             	mov    eax,DWORD PTR [ebp-0x14]
 8048b0b:	89 04 24             	mov    DWORD PTR [esp],eax
 8048b0e:	e8 9d fb ff ff       	call   80486b0 <setuid@plt>
 8048b13:	83 f8 ff             	cmp    eax,0xffffffff
 8048b16:	75 09                	jne    8048b21 <exit@plt+0x3a1>
 8048b18:	c7 45 f0 ff ff ff ff 	mov    DWORD PTR [ebp-0x10],0xffffffff
 8048b1f:	eb 52                	jmp    8048b73 <exit@plt+0x3f3>
 8048b21:	8b 45 ec             	mov    eax,DWORD PTR [ebp-0x14]
 8048b24:	89 04 24             	mov    DWORD PTR [esp],eax
 8048b27:	e8 24 fc ff ff       	call   8048750 <seteuid@plt>
 8048b2c:	83 f8 ff             	cmp    eax,0xffffffff
 8048b2f:	75 09                	jne    8048b3a <exit@plt+0x3ba>
 8048b31:	c7 45 f0 ff ff ff ff 	mov    DWORD PTR [ebp-0x10],0xffffffff
 8048b38:	eb 39                	jmp    8048b73 <exit@plt+0x3f3>
 8048b3a:	8b 45 e8             	mov    eax,DWORD PTR [ebp-0x18]
 8048b3d:	89 04 24             	mov    DWORD PTR [esp],eax
 8048b40:	e8 1b fb ff ff       	call   8048660 <setegid@plt>
 8048b45:	83 f8 ff             	cmp    eax,0xffffffff
 8048b48:	75 09                	jne    8048b53 <exit@plt+0x3d3>
 8048b4a:	c7 45 f0 ff ff ff ff 	mov    DWORD PTR [ebp-0x10],0xffffffff
 8048b51:	eb 20                	jmp    8048b73 <exit@plt+0x3f3>
 8048b53:	8b 45 f4             	mov    eax,DWORD PTR [ebp-0xc]
 8048b56:	89 04 24             	mov    DWORD PTR [esp],eax
 8048b59:	e8 72 fb ff ff       	call   80486d0 <chdir@plt>
 8048b5e:	83 f8 ff             	cmp    eax,0xffffffff
 8048b61:	75 09                	jne    8048b6c <exit@plt+0x3ec>
 8048b63:	c7 45 f0 ff ff ff ff 	mov    DWORD PTR [ebp-0x10],0xffffffff
 8048b6a:	eb 07                	jmp    8048b73 <exit@plt+0x3f3>
 8048b6c:	c7 45 f0 00 00 00 00 	mov    DWORD PTR [ebp-0x10],0x0
 8048b73:	8b 45 f0             	mov    eax,DWORD PTR [ebp-0x10]
 8048b76:	c9                   	leave  
 8048b77:	c3                   	ret    
 8048b78:	55                   	push   ebp
 8048b79:	89 e5                	mov    ebp,esp
 8048b7b:	83 ec 28             	sub    esp,0x28
 8048b7e:	c7 45 f0 00 00 00 00 	mov    DWORD PTR [ebp-0x10],0x0
 8048b85:	c7 45 f4 00 00 00 00 	mov    DWORD PTR [ebp-0xc],0x0
 8048b8c:	eb 42                	jmp    8048bd0 <exit@plt+0x450>
 8048b8e:	8b 45 f0             	mov    eax,DWORD PTR [ebp-0x10]
 8048b91:	8b 55 10             	mov    edx,DWORD PTR [ebp+0x10]
 8048b94:	29 c2                	sub    edx,eax
 8048b96:	8b 45 f0             	mov    eax,DWORD PTR [ebp-0x10]
 8048b99:	8b 4d 0c             	mov    ecx,DWORD PTR [ebp+0xc]
 8048b9c:	8d 04 01             	lea    eax,[ecx+eax*1]
 8048b9f:	c7 44 24 0c 00 00 00 	mov    DWORD PTR [esp+0xc],0x0
 8048ba6:	00 
 8048ba7:	89 54 24 08          	mov    DWORD PTR [esp+0x8],edx
 8048bab:	89 44 24 04          	mov    DWORD PTR [esp+0x4],eax
 8048baf:	8b 45 08             	mov    eax,DWORD PTR [ebp+0x8]
 8048bb2:	89 04 24             	mov    DWORD PTR [esp],eax
 8048bb5:	e8 46 fb ff ff       	call   8048700 <send@plt>
 8048bba:	89 45 f4             	mov    DWORD PTR [ebp-0xc],eax
 8048bbd:	83 7d f4 00          	cmp    DWORD PTR [ebp-0xc],0x0
 8048bc1:	7f 07                	jg     8048bca <exit@plt+0x44a>
 8048bc3:	b8 ff ff ff ff       	mov    eax,0xffffffff
 8048bc8:	eb 11                	jmp    8048bdb <exit@plt+0x45b>
 8048bca:	8b 45 f4             	mov    eax,DWORD PTR [ebp-0xc]
 8048bcd:	01 45 f0             	add    DWORD PTR [ebp-0x10],eax
 8048bd0:	8b 45 10             	mov    eax,DWORD PTR [ebp+0x10]
 8048bd3:	3b 45 f0             	cmp    eax,DWORD PTR [ebp-0x10]
 8048bd6:	77 b6                	ja     8048b8e <exit@plt+0x40e>
 8048bd8:	8b 45 f0             	mov    eax,DWORD PTR [ebp-0x10]
 8048bdb:	c9                   	leave  
 8048bdc:	c3                   	ret    
 8048bdd:	55                   	push   ebp
 8048bde:	89 e5                	mov    ebp,esp
 8048be0:	83 ec 18             	sub    esp,0x18
 8048be3:	8b 45 0c             	mov    eax,DWORD PTR [ebp+0xc]
 8048be6:	89 04 24             	mov    DWORD PTR [esp],eax
 8048be9:	e8 d2 fa ff ff       	call   80486c0 <strlen@plt>
 8048bee:	89 44 24 08          	mov    DWORD PTR [esp+0x8],eax
 8048bf2:	8b 45 0c             	mov    eax,DWORD PTR [ebp+0xc]
 8048bf5:	89 44 24 04          	mov    DWORD PTR [esp+0x4],eax
 8048bf9:	8b 45 08             	mov    eax,DWORD PTR [ebp+0x8]
 8048bfc:	89 04 24             	mov    DWORD PTR [esp],eax
 8048bff:	e8 74 ff ff ff       	call   8048b78 <exit@plt+0x3f8>
 8048c04:	c9                   	leave  
 8048c05:	c3                   	ret    
 8048c06:	55                   	push   ebp
 8048c07:	89 e5                	mov    ebp,esp
 8048c09:	83 ec 28             	sub    esp,0x28
 8048c0c:	c7 45 f4 00 00 00 00 	mov    DWORD PTR [ebp-0xc],0x0
 8048c13:	c7 45 ec 00 00 00 00 	mov    DWORD PTR [ebp-0x14],0x0
 8048c1a:	8d 45 10             	lea    eax,[ebp+0x10]
 8048c1d:	89 45 f0             	mov    DWORD PTR [ebp-0x10],eax
 8048c20:	8b 45 f0             	mov    eax,DWORD PTR [ebp-0x10]
 8048c23:	89 44 24 08          	mov    DWORD PTR [esp+0x8],eax
 8048c27:	8b 45 0c             	mov    eax,DWORD PTR [ebp+0xc]
 8048c2a:	89 44 24 04          	mov    DWORD PTR [esp+0x4],eax
 8048c2e:	8d 45 ec             	lea    eax,[ebp-0x14]
 8048c31:	89 04 24             	mov    DWORD PTR [esp],eax
 8048c34:	e8 d7 fa ff ff       	call   8048710 <vasprintf@plt>
 8048c39:	89 45 f4             	mov    DWORD PTR [ebp-0xc],eax
 8048c3c:	83 7d f4 ff          	cmp    DWORD PTR [ebp-0xc],0xffffffff
 8048c40:	74 17                	je     8048c59 <exit@plt+0x4d9>
 8048c42:	8b 45 ec             	mov    eax,DWORD PTR [ebp-0x14]
 8048c45:	89 44 24 04          	mov    DWORD PTR [esp+0x4],eax
 8048c49:	8b 45 08             	mov    eax,DWORD PTR [ebp+0x8]
 8048c4c:	89 04 24             	mov    DWORD PTR [esp],eax
 8048c4f:	e8 89 ff ff ff       	call   8048bdd <exit@plt+0x45d>
 8048c54:	89 45 f4             	mov    DWORD PTR [ebp-0xc],eax
 8048c57:	eb 01                	jmp    8048c5a <exit@plt+0x4da>
 8048c59:	90                   	nop
 8048c5a:	8b 45 ec             	mov    eax,DWORD PTR [ebp-0x14]
 8048c5d:	89 04 24             	mov    DWORD PTR [esp],eax
 8048c60:	e8 1b fa ff ff       	call   8048680 <free@plt>
 8048c65:	8b 45 f4             	mov    eax,DWORD PTR [ebp-0xc]
 8048c68:	c9                   	leave  
 8048c69:	c3                   	ret    
 8048c6a:	55                   	push   ebp
 8048c6b:	89 e5                	mov    ebp,esp
 8048c6d:	83 ec 28             	sub    esp,0x28
 8048c70:	c7 45 ec 00 00 00 00 	mov    DWORD PTR [ebp-0x14],0x0
 8048c77:	c7 45 f4 00 00 00 00 	mov    DWORD PTR [ebp-0xc],0x0
 8048c7e:	83 7d 10 00          	cmp    DWORD PTR [ebp+0x10],0x0
 8048c82:	74 5f                	je     8048ce3 <exit@plt+0x563>
 8048c84:	c7 45 f0 00 00 00 00 	mov    DWORD PTR [ebp-0x10],0x0
 8048c8b:	eb 48                	jmp    8048cd5 <exit@plt+0x555>
 8048c8d:	8b 45 f0             	mov    eax,DWORD PTR [ebp-0x10]
 8048c90:	8b 55 10             	mov    edx,DWORD PTR [ebp+0x10]
 8048c93:	89 d1                	mov    ecx,edx
 8048c95:	29 c1                	sub    ecx,eax
 8048c97:	89 c8                	mov    eax,ecx
 8048c99:	8b 55 f0             	mov    edx,DWORD PTR [ebp-0x10]
 8048c9c:	8b 4d 0c             	mov    ecx,DWORD PTR [ebp+0xc]
 8048c9f:	8d 14 11             	lea    edx,[ecx+edx*1]
 8048ca2:	89 44 24 0c          	mov    DWORD PTR [esp+0xc],eax
 8048ca6:	c7 44 24 08 00 00 00 	mov    DWORD PTR [esp+0x8],0x0
 8048cad:	00 
 8048cae:	89 54 24 04          	mov    DWORD PTR [esp+0x4],edx
 8048cb2:	8b 45 08             	mov    eax,DWORD PTR [ebp+0x8]
 8048cb5:	89 04 24             	mov    DWORD PTR [esp],eax
 8048cb8:	e8 53 f9 ff ff       	call   8048610 <recv@plt>
 8048cbd:	89 45 f4             	mov    DWORD PTR [ebp-0xc],eax
 8048cc0:	83 7d f4 ff          	cmp    DWORD PTR [ebp-0xc],0xffffffff
 8048cc4:	75 09                	jne    8048ccf <exit@plt+0x54f>
 8048cc6:	c7 45 ec ff ff ff ff 	mov    DWORD PTR [ebp-0x14],0xffffffff
 8048ccd:	eb 0e                	jmp    8048cdd <exit@plt+0x55d>
 8048ccf:	8b 45 f4             	mov    eax,DWORD PTR [ebp-0xc]
 8048cd2:	01 45 f0             	add    DWORD PTR [ebp-0x10],eax
 8048cd5:	8b 45 f0             	mov    eax,DWORD PTR [ebp-0x10]
 8048cd8:	3b 45 10             	cmp    eax,DWORD PTR [ebp+0x10]
 8048cdb:	72 b0                	jb     8048c8d <exit@plt+0x50d>
 8048cdd:	8b 45 f0             	mov    eax,DWORD PTR [ebp-0x10]
 8048ce0:	89 45 ec             	mov    DWORD PTR [ebp-0x14],eax
 8048ce3:	8b 45 ec             	mov    eax,DWORD PTR [ebp-0x14]
 8048ce6:	c9                   	leave  
 8048ce7:	c3                   	ret    
 8048ce8:	55                   	push   ebp
 8048ce9:	89 e5                	mov    ebp,esp
 8048ceb:	83 ec 38             	sub    esp,0x38
 8048cee:	8b 45 14             	mov    eax,DWORD PTR [ebp+0x14]
 8048cf1:	88 45 e4             	mov    BYTE PTR [ebp-0x1c],al
 8048cf4:	c7 45 f0 00 00 00 00 	mov    DWORD PTR [ebp-0x10],0x0
 8048cfb:	c7 45 f4 00 00 00 00 	mov    DWORD PTR [ebp-0xc],0x0
 8048d02:	eb 4c                	jmp    8048d50 <exit@plt+0x5d0>
 8048d04:	c7 44 24 08 01 00 00 	mov    DWORD PTR [esp+0x8],0x1
 8048d0b:	00 
 8048d0c:	8d 45 ef             	lea    eax,[ebp-0x11]
 8048d0f:	89 44 24 04          	mov    DWORD PTR [esp+0x4],eax
 8048d13:	8b 45 08             	mov    eax,DWORD PTR [ebp+0x8]
 8048d16:	89 04 24             	mov    DWORD PTR [esp],eax
 8048d19:	e8 52 f9 ff ff       	call   8048670 <read@plt>
 8048d1e:	85 c0                	test   eax,eax
 8048d20:	7e 25                	jle    8048d47 <exit@plt+0x5c7>
 8048d22:	0f b6 45 ef          	movzx  eax,BYTE PTR [ebp-0x11]
 8048d26:	3a 45 e4             	cmp    al,BYTE PTR [ebp-0x1c]
 8048d29:	75 08                	jne    8048d33 <exit@plt+0x5b3>
 8048d2b:	8b 45 f4             	mov    eax,DWORD PTR [ebp-0xc]
 8048d2e:	89 45 f0             	mov    DWORD PTR [ebp-0x10],eax
 8048d31:	eb 25                	jmp    8048d58 <exit@plt+0x5d8>
 8048d33:	8b 45 f4             	mov    eax,DWORD PTR [ebp-0xc]
 8048d36:	8b 55 0c             	mov    edx,DWORD PTR [ebp+0xc]
 8048d39:	01 c2                	add    edx,eax
 8048d3b:	0f b6 45 ef          	movzx  eax,BYTE PTR [ebp-0x11]
 8048d3f:	88 02                	mov    BYTE PTR [edx],al
 8048d41:	83 45 f4 01          	add    DWORD PTR [ebp-0xc],0x1
 8048d45:	eb 09                	jmp    8048d50 <exit@plt+0x5d0>
 8048d47:	c7 45 f0 ff ff ff ff 	mov    DWORD PTR [ebp-0x10],0xffffffff
 8048d4e:	eb 08                	jmp    8048d58 <exit@plt+0x5d8>
 8048d50:	8b 45 f4             	mov    eax,DWORD PTR [ebp-0xc]
 8048d53:	3b 45 10             	cmp    eax,DWORD PTR [ebp+0x10]
 8048d56:	72 ac                	jb     8048d04 <exit@plt+0x584>
 8048d58:	8b 45 f0             	mov    eax,DWORD PTR [ebp-0x10]
 8048d5b:	c9                   	leave  
 8048d5c:	c3                   	ret    
 8048d5d:	90                   	nop
 8048d5e:	90                   	nop
 8048d5f:	90                   	nop
 8048d60:	55                   	push   ebp
 8048d61:	89 e5                	mov    ebp,esp
 8048d63:	81 ec 38 10 00 00    	sub    esp,0x1038
 8048d69:	8d 85 e0 ef ff ff    	lea    eax,[ebp-0x1020]
 8048d6f:	89 45 e0             	mov    DWORD PTR [ebp-0x20],eax
 8048d72:	8b 45 08             	mov    eax,DWORD PTR [ebp+0x8]
 8048d75:	89 45 e4             	mov    DWORD PTR [ebp-0x1c],eax
 8048d78:	c7 44 24 08 00 10 00 	mov    DWORD PTR [esp+0x8],0x1000
 8048d7f:	00 
 8048d80:	c7 44 24 04 00 00 00 	mov    DWORD PTR [esp+0x4],0x0
 8048d87:	00 
 8048d88:	8d 85 e0 ef ff ff    	lea    eax,[ebp-0x1020]
 8048d8e:	89 04 24             	mov    DWORD PTR [esp],eax
 8048d91:	e8 9a f8 ff ff       	call   8048630 <memset@plt>
 8048d96:	c7 45 e8 00 00 00 01 	mov    DWORD PTR [ebp-0x18],0x1000000
 8048d9d:	e9 64 01 00 00       	jmp    8048f06 <exit@plt+0x786>
 8048da2:	8b 45 e4             	mov    eax,DWORD PTR [ebp-0x1c]
 8048da5:	0f b6 00             	movzx  eax,BYTE PTR [eax]
 8048da8:	88 45 ef             	mov    BYTE PTR [ebp-0x11],al
 8048dab:	83 45 e4 01          	add    DWORD PTR [ebp-0x1c],0x1
 8048daf:	0f be 45 ef          	movsx  eax,BYTE PTR [ebp-0x11]
 8048db3:	83 f8 3c             	cmp    eax,0x3c
 8048db6:	74 4c                	je     8048e04 <exit@plt+0x684>
 8048db8:	83 f8 3c             	cmp    eax,0x3c
 8048dbb:	7f 27                	jg     8048de4 <exit@plt+0x664>
 8048dbd:	83 f8 2d             	cmp    eax,0x2d
 8048dc0:	74 5e                	je     8048e20 <exit@plt+0x6a0>
 8048dc2:	83 f8 2d             	cmp    eax,0x2d
 8048dc5:	7f 13                	jg     8048dda <exit@plt+0x65a>
 8048dc7:	83 f8 0a             	cmp    eax,0xa
 8048dca:	0f 84 42 01 00 00    	je     8048f12 <exit@plt+0x792>
 8048dd0:	83 f8 2b             	cmp    eax,0x2b
 8048dd3:	74 38                	je     8048e0d <exit@plt+0x68d>
 8048dd5:	e9 28 01 00 00       	jmp    8048f02 <exit@plt+0x782>
 8048dda:	83 f8 2e             	cmp    eax,0x2e
 8048ddd:	74 54                	je     8048e33 <exit@plt+0x6b3>
 8048ddf:	e9 1e 01 00 00       	jmp    8048f02 <exit@plt+0x782>
 8048de4:	83 f8 5b             	cmp    eax,0x5b
 8048de7:	74 7a                	je     8048e63 <exit@plt+0x6e3>
 8048de9:	83 f8 5d             	cmp    eax,0x5d
 8048dec:	0f 84 be 00 00 00    	je     8048eb0 <exit@plt+0x730>
 8048df2:	83 f8 3e             	cmp    eax,0x3e
 8048df5:	0f 85 07 01 00 00    	jne    8048f02 <exit@plt+0x782>
 8048dfb:	83 45 e0 01          	add    DWORD PTR [ebp-0x20],0x1
 8048dff:	e9 fe 00 00 00       	jmp    8048f02 <exit@plt+0x782>
 8048e04:	83 6d e0 01          	sub    DWORD PTR [ebp-0x20],0x1
 8048e08:	e9 f5 00 00 00       	jmp    8048f02 <exit@plt+0x782>
 8048e0d:	8b 45 e0             	mov    eax,DWORD PTR [ebp-0x20]
 8048e10:	0f b6 00             	movzx  eax,BYTE PTR [eax]
 8048e13:	8d 50 01             	lea    edx,[eax+0x1]
 8048e16:	8b 45 e0             	mov    eax,DWORD PTR [ebp-0x20]
 8048e19:	88 10                	mov    BYTE PTR [eax],dl
 8048e1b:	e9 e2 00 00 00       	jmp    8048f02 <exit@plt+0x782>
 8048e20:	8b 45 e0             	mov    eax,DWORD PTR [ebp-0x20]
 8048e23:	0f b6 00             	movzx  eax,BYTE PTR [eax]
 8048e26:	8d 50 ff             	lea    edx,[eax-0x1]
 8048e29:	8b 45 e0             	mov    eax,DWORD PTR [ebp-0x20]
 8048e2c:	88 10                	mov    BYTE PTR [eax],dl
 8048e2e:	e9 cf 00 00 00       	jmp    8048f02 <exit@plt+0x782>
 8048e33:	c7 44 24 0c 00 00 00 	mov    DWORD PTR [esp+0xc],0x0
 8048e3a:	00 
 8048e3b:	c7 44 24 08 01 00 00 	mov    DWORD PTR [esp+0x8],0x1
 8048e42:	00 
 8048e43:	8b 45 e0             	mov    eax,DWORD PTR [ebp-0x20]
 8048e46:	89 44 24 04          	mov    DWORD PTR [esp+0x4],eax
 8048e4a:	8b 45 0c             	mov    eax,DWORD PTR [ebp+0xc]
 8048e4d:	89 04 24             	mov    DWORD PTR [esp],eax
 8048e50:	e8 ab f8 ff ff       	call   8048700 <send@plt>
 8048e55:	83 f8 01             	cmp    eax,0x1
 8048e58:	0f 84 9d 00 00 00    	je     8048efb <exit@plt+0x77b>
 8048e5e:	e9 b6 00 00 00       	jmp    8048f19 <exit@plt+0x799>
 8048e63:	8b 45 e0             	mov    eax,DWORD PTR [ebp-0x20]
 8048e66:	0f b6 00             	movzx  eax,BYTE PTR [eax]
 8048e69:	84 c0                	test   al,al
 8048e6b:	0f 85 8d 00 00 00    	jne    8048efe <exit@plt+0x77e>
 8048e71:	c7 45 f0 01 00 00 00 	mov    DWORD PTR [ebp-0x10],0x1
 8048e78:	eb 2e                	jmp    8048ea8 <exit@plt+0x728>
 8048e7a:	8b 45 e4             	mov    eax,DWORD PTR [ebp-0x1c]
 8048e7d:	0f b6 00             	movzx  eax,BYTE PTR [eax]
 8048e80:	3c 0a                	cmp    al,0xa
 8048e82:	0f 84 8d 00 00 00    	je     8048f15 <exit@plt+0x795>
 8048e88:	8b 45 e4             	mov    eax,DWORD PTR [ebp-0x1c]
 8048e8b:	0f b6 00             	movzx  eax,BYTE PTR [eax]
 8048e8e:	3c 5b                	cmp    al,0x5b
 8048e90:	75 04                	jne    8048e96 <exit@plt+0x716>
 8048e92:	83 45 f0 01          	add    DWORD PTR [ebp-0x10],0x1
 8048e96:	8b 45 e4             	mov    eax,DWORD PTR [ebp-0x1c]
 8048e99:	0f b6 00             	movzx  eax,BYTE PTR [eax]
 8048e9c:	3c 5d                	cmp    al,0x5d
 8048e9e:	75 04                	jne    8048ea4 <exit@plt+0x724>
 8048ea0:	83 6d f0 01          	sub    DWORD PTR [ebp-0x10],0x1
 8048ea4:	83 45 e4 01          	add    DWORD PTR [ebp-0x1c],0x1
 8048ea8:	83 7d f0 00          	cmp    DWORD PTR [ebp-0x10],0x0
 8048eac:	7f cc                	jg     8048e7a <exit@plt+0x6fa>
 8048eae:	eb 52                	jmp    8048f02 <exit@plt+0x782>
 8048eb0:	8b 45 e0             	mov    eax,DWORD PTR [ebp-0x20]
 8048eb3:	0f b6 00             	movzx  eax,BYTE PTR [eax]
 8048eb6:	84 c0                	test   al,al
 8048eb8:	74 47                	je     8048f01 <exit@plt+0x781>
 8048eba:	83 6d e4 02          	sub    DWORD PTR [ebp-0x1c],0x2
 8048ebe:	c7 45 f4 01 00 00 00 	mov    DWORD PTR [ebp-0xc],0x1
 8048ec5:	eb 28                	jmp    8048eef <exit@plt+0x76f>
 8048ec7:	8b 45 e4             	mov    eax,DWORD PTR [ebp-0x1c]
 8048eca:	3b 45 08             	cmp    eax,DWORD PTR [ebp+0x8]
 8048ecd:	72 49                	jb     8048f18 <exit@plt+0x798>
 8048ecf:	8b 45 e4             	mov    eax,DWORD PTR [ebp-0x1c]
 8048ed2:	0f b6 00             	movzx  eax,BYTE PTR [eax]
 8048ed5:	3c 5b                	cmp    al,0x5b
 8048ed7:	75 04                	jne    8048edd <exit@plt+0x75d>
 8048ed9:	83 6d f4 01          	sub    DWORD PTR [ebp-0xc],0x1
 8048edd:	8b 45 e4             	mov    eax,DWORD PTR [ebp-0x1c]
 8048ee0:	0f b6 00             	movzx  eax,BYTE PTR [eax]
 8048ee3:	3c 5d                	cmp    al,0x5d
 8048ee5:	75 04                	jne    8048eeb <exit@plt+0x76b>
 8048ee7:	83 45 f4 01          	add    DWORD PTR [ebp-0xc],0x1
 8048eeb:	83 6d e4 01          	sub    DWORD PTR [ebp-0x1c],0x1
 8048eef:	83 7d f4 00          	cmp    DWORD PTR [ebp-0xc],0x0
 8048ef3:	7f d2                	jg     8048ec7 <exit@plt+0x747>
 8048ef5:	83 45 e4 02          	add    DWORD PTR [ebp-0x1c],0x2
 8048ef9:	eb 07                	jmp    8048f02 <exit@plt+0x782>
 8048efb:	90                   	nop
 8048efc:	eb 04                	jmp    8048f02 <exit@plt+0x782>
 8048efe:	90                   	nop
 8048eff:	eb 01                	jmp    8048f02 <exit@plt+0x782>
 8048f01:	90                   	nop
 8048f02:	83 6d e8 01          	sub    DWORD PTR [ebp-0x18],0x1
 8048f06:	83 7d e8 00          	cmp    DWORD PTR [ebp-0x18],0x0
 8048f0a:	0f 85 92 fe ff ff    	jne    8048da2 <exit@plt+0x622>
 8048f10:	eb 07                	jmp    8048f19 <exit@plt+0x799>
 8048f12:	90                   	nop
 8048f13:	eb 04                	jmp    8048f19 <exit@plt+0x799>
 8048f15:	90                   	nop
 8048f16:	eb 01                	jmp    8048f19 <exit@plt+0x799>
 8048f18:	90                   	nop
 8048f19:	c9                   	leave  
 8048f1a:	c3                   	ret    
 8048f1b:	55                   	push   ebp
 8048f1c:	89 e5                	mov    ebp,esp
 8048f1e:	81 ec 28 02 00 00    	sub    esp,0x228
 8048f24:	c7 44 24 0c 0a 00 00 	mov    DWORD PTR [esp+0xc],0xa
 8048f2b:	00 
 8048f2c:	c7 44 24 08 ff 01 00 	mov    DWORD PTR [esp+0x8],0x1ff
 8048f33:	00 
 8048f34:	8d 85 f4 fd ff ff    	lea    eax,[ebp-0x20c]
 8048f3a:	89 44 24 04          	mov    DWORD PTR [esp+0x4],eax
 8048f3e:	8b 45 08             	mov    eax,DWORD PTR [ebp+0x8]
 8048f41:	89 04 24             	mov    DWORD PTR [esp],eax
 8048f44:	e8 9f fd ff ff       	call   8048ce8 <exit@plt+0x568>
 8048f49:	89 45 f4             	mov    DWORD PTR [ebp-0xc],eax
 8048f4c:	83 7d f4 00          	cmp    DWORD PTR [ebp-0xc],0x0
 8048f50:	7f 07                	jg     8048f59 <exit@plt+0x7d9>
 8048f52:	b8 00 00 00 00       	mov    eax,0x0
 8048f57:	c9                   	leave  
 8048f58:	c3                   	ret    
 8048f59:	8b 45 f4             	mov    eax,DWORD PTR [ebp-0xc]
 8048f5c:	c6 84 05 f4 fd ff ff 	mov    BYTE PTR [ebp+eax*1-0x20c],0xa
 8048f63:	0a 
 8048f64:	8b 45 08             	mov    eax,DWORD PTR [ebp+0x8]
 8048f67:	89 44 24 04          	mov    DWORD PTR [esp+0x4],eax
 8048f6b:	8d 85 f4 fd ff ff    	lea    eax,[ebp-0x20c]
 8048f71:	89 04 24             	mov    DWORD PTR [esp],eax
 8048f74:	e8 e7 fd ff ff       	call   8048d60 <exit@plt+0x5e0>
 8048f79:	eb a9                	jmp    8048f24 <exit@plt+0x7a4>
 8048f7b:	90                   	nop
 8048f7c:	90                   	nop
 8048f7d:	90                   	nop
 8048f7e:	90                   	nop
 8048f7f:	90                   	nop
 8048f80:	55                   	push   ebp
 8048f81:	89 e5                	mov    ebp,esp
 8048f83:	5d                   	pop    ebp
 8048f84:	c3                   	ret    
 8048f85:	8d 74 26 00          	lea    esi,[esi+eiz*1+0x0]
 8048f89:	8d bc 27 00 00 00 00 	lea    edi,[edi+eiz*1+0x0]
 8048f90:	55                   	push   ebp
 8048f91:	89 e5                	mov    ebp,esp
 8048f93:	57                   	push   edi
 8048f94:	56                   	push   esi
 8048f95:	53                   	push   ebx
 8048f96:	e8 4f 00 00 00       	call   8048fea <exit@plt+0x86a>
 8048f9b:	81 c3 59 20 00 00    	add    ebx,0x2059
 8048fa1:	83 ec 1c             	sub    esp,0x1c
 8048fa4:	e8 f7 f5 ff ff       	call   80485a0 <err@plt-0x40>
 8048fa9:	8d bb 20 ff ff ff    	lea    edi,[ebx-0xe0]
 8048faf:	8d 83 20 ff ff ff    	lea    eax,[ebx-0xe0]
 8048fb5:	29 c7                	sub    edi,eax
 8048fb7:	c1 ff 02             	sar    edi,0x2
 8048fba:	85 ff                	test   edi,edi
 8048fbc:	74 24                	je     8048fe2 <exit@plt+0x862>
 8048fbe:	31 f6                	xor    esi,esi
 8048fc0:	8b 45 10             	mov    eax,DWORD PTR [ebp+0x10]
 8048fc3:	89 44 24 08          	mov    DWORD PTR [esp+0x8],eax
 8048fc7:	8b 45 0c             	mov    eax,DWORD PTR [ebp+0xc]
 8048fca:	89 44 24 04          	mov    DWORD PTR [esp+0x4],eax
 8048fce:	8b 45 08             	mov    eax,DWORD PTR [ebp+0x8]
 8048fd1:	89 04 24             	mov    DWORD PTR [esp],eax
 8048fd4:	ff 94 b3 20 ff ff ff 	call   DWORD PTR [ebx+esi*4-0xe0]
 8048fdb:	83 c6 01             	add    esi,0x1
 8048fde:	39 fe                	cmp    esi,edi
 8048fe0:	72 de                	jb     8048fc0 <exit@plt+0x840>
 8048fe2:	83 c4 1c             	add    esp,0x1c
 8048fe5:	5b                   	pop    ebx
 8048fe6:	5e                   	pop    esi
 8048fe7:	5f                   	pop    edi
 8048fe8:	5d                   	pop    ebp
 8048fe9:	c3                   	ret    
 8048fea:	8b 1c 24             	mov    ebx,DWORD PTR [esp]
 8048fed:	c3                   	ret    
 8048fee:	90                   	nop
 8048fef:	90                   	nop
 8048ff0:	55                   	push   ebp
 8048ff1:	89 e5                	mov    ebp,esp
 8048ff3:	53                   	push   ebx
 8048ff4:	83 ec 04             	sub    esp,0x4
 8048ff7:	a1 14 af 04 08       	mov    eax,ds:0x804af14
 8048ffc:	83 f8 ff             	cmp    eax,0xffffffff
 8048fff:	74 13                	je     8049014 <exit@plt+0x894>
 8049001:	bb 14 af 04 08       	mov    ebx,0x804af14
 8049006:	66 90                	xchg   ax,ax
 8049008:	83 eb 04             	sub    ebx,0x4
 804900b:	ff d0                	call   eax
 804900d:	8b 03                	mov    eax,DWORD PTR [ebx]
 804900f:	83 f8 ff             	cmp    eax,0xffffffff
 8049012:	75 f4                	jne    8049008 <exit@plt+0x888>
 8049014:	83 c4 04             	add    esp,0x4
 8049017:	5b                   	pop    ebx
 8049018:	5d                   	pop    ebp
 8049019:	c3                   	ret    
 804901a:	90                   	nop
 804901b:	90                   	nop

Disassembly of section .fini:

0804901c <.fini>:
 804901c:	55                   	push   ebp
 804901d:	89 e5                	mov    ebp,esp
 804901f:	53                   	push   ebx
 8049020:	83 ec 04             	sub    esp,0x4
 8049023:	e8 00 00 00 00       	call   8049028 <exit@plt+0x8a8>
 8049028:	5b                   	pop    ebx
 8049029:	81 c3 cc 1f 00 00    	add    ebx,0x1fcc
 804902f:	e8 8c f7 ff ff       	call   80487c0 <exit@plt+0x40>
 8049034:	59                   	pop    ecx
 8049035:	5b                   	pop    ebx
 8049036:	c9                   	leave  
 8049037:	c3                   	ret    

frak:     file format elf32-i386


Disassembly of section .text:

08048790 <.text>:
 8048790:	31 ed                	xor    ebp,ebp
 8048792:	5e                   	pop    esi
 8048793:	89 e1                	mov    ecx,esp
 8048795:	83 e4 f0             	and    esp,0xfffffff0
 8048798:	50                   	push   eax
 8048799:	54                   	push   esp
 804879a:	52                   	push   edx
 804879b:	68 80 8f 04 08       	push   0x8048f80
 80487a0:	68 90 8f 04 08       	push   0x8048f90
 80487a5:	51                   	push   ecx
 80487a6:	56                   	push   esi
 80487a7:	68 44 88 04 08       	push   0x8048844
 80487ac:	e8 8f fe ff ff       	call   8048640 <__libc_start_main@plt>
 80487b1:	f4                   	hlt    
 80487b2:	90                   	nop
 80487b3:	90                   	nop
 80487b4:	90                   	nop
 80487b5:	90                   	nop
 80487b6:	90                   	nop
 80487b7:	90                   	nop
 80487b8:	90                   	nop
 80487b9:	90                   	nop
 80487ba:	90                   	nop
 80487bb:	90                   	nop
 80487bc:	90                   	nop
 80487bd:	90                   	nop
 80487be:	90                   	nop
 80487bf:	90                   	nop
 80487c0:	55                   	push   ebp
 80487c1:	89 e5                	mov    ebp,esp
 80487c3:	53                   	push   ebx
 80487c4:	83 ec 04             	sub    esp,0x4
 80487c7:	80 3d 7c b0 04 08 00 	cmp    BYTE PTR ds:0x804b07c,0x0
 80487ce:	75 3f                	jne    804880f <exit@plt+0x8f>
 80487d0:	a1 80 b0 04 08       	mov    eax,ds:0x804b080
 80487d5:	bb 20 af 04 08       	mov    ebx,0x804af20
 80487da:	81 eb 1c af 04 08    	sub    ebx,0x804af1c
 80487e0:	c1 fb 02             	sar    ebx,0x2
 80487e3:	83 eb 01             	sub    ebx,0x1
 80487e6:	39 d8                	cmp    eax,ebx
 80487e8:	73 1e                	jae    8048808 <exit@plt+0x88>
 80487ea:	8d b6 00 00 00 00    	lea    esi,[esi+0x0]
 80487f0:	83 c0 01             	add    eax,0x1
 80487f3:	a3 80 b0 04 08       	mov    ds:0x804b080,eax
 80487f8:	ff 14 85 1c af 04 08 	call   DWORD PTR [eax*4+0x804af1c]
 80487ff:	a1 80 b0 04 08       	mov    eax,ds:0x804b080
 8048804:	39 d8                	cmp    eax,ebx
 8048806:	72 e8                	jb     80487f0 <exit@plt+0x70>
 8048808:	c6 05 7c b0 04 08 01 	mov    BYTE PTR ds:0x804b07c,0x1
 804880f:	83 c4 04             	add    esp,0x4
 8048812:	5b                   	pop    ebx
 8048813:	5d                   	pop    ebp
 8048814:	c3                   	ret    
 8048815:	8d 74 26 00          	lea    esi,[esi+eiz*1+0x0]
 8048819:	8d bc 27 00 00 00 00 	lea    edi,[edi+eiz*1+0x0]
 8048820:	55                   	push   ebp
 8048821:	89 e5                	mov    ebp,esp
 8048823:	83 ec 18             	sub    esp,0x18
 8048826:	a1 24 af 04 08       	mov    eax,ds:0x804af24
 804882b:	85 c0                	test   eax,eax
 804882d:	74 12                	je     8048841 <exit@plt+0xc1>
 804882f:	b8 00 00 00 00       	mov    eax,0x0
 8048834:	85 c0                	test   eax,eax
 8048836:	74 09                	je     8048841 <exit@plt+0xc1>
 8048838:	c7 04 24 24 af 04 08 	mov    DWORD PTR [esp],0x804af24
 804883f:	ff d0                	call   eax
 8048841:	c9                   	leave  
 8048842:	c3                   	ret    
 8048843:	90                   	nop
 8048844:	55                   	push   ebp
 8048845:	89 e5                	mov    ebp,esp
 8048847:	83 e4 f0             	and    esp,0xfffffff0
 804884a:	83 ec 20             	sub    esp,0x20
 804884d:	c7 44 24 1c 00 00 00 	mov    DWORD PTR [esp+0x1c],0x0
 8048854:	00 
 8048855:	a1 78 b0 04 08       	mov    eax,ds:0x804b078
 804885a:	0f b7 c0             	movzx  eax,ax
 804885d:	89 04 24             	mov    DWORD PTR [esp],eax
 8048860:	e8 1f 00 00 00       	call   8048884 <exit@plt+0x104>
 8048865:	89 44 24 1c          	mov    DWORD PTR [esp+0x1c],eax
 8048869:	c7 44 24 04 1b 8f 04 	mov    DWORD PTR [esp+0x4],0x8048f1b
 8048870:	08 
 8048871:	8b 44 24 1c          	mov    eax,DWORD PTR [esp+0x1c]
 8048875:	89 04 24             	mov    DWORD PTR [esp],eax
 8048878:	e8 5b 01 00 00       	call   80489d8 <exit@plt+0x258>
 804887d:	b8 00 00 00 00       	mov    eax,0x0
 8048882:	c9                   	leave  
 8048883:	c3                   	ret    
 8048884:	55                   	push   ebp
 8048885:	89 e5                	mov    ebp,esp
 8048887:	83 ec 58             	sub    esp,0x58
 804888a:	8b 45 08             	mov    eax,DWORD PTR [ebp+0x8]
 804888d:	66 89 45 d4          	mov    WORD PTR [ebp-0x2c],ax
 8048891:	c7 45 f4 00 00 00 00 	mov    DWORD PTR [ebp-0xc],0x0
 8048898:	c7 45 f0 01 00 00 00 	mov    DWORD PTR [ebp-0x10],0x1
 804889f:	66 c7 45 e0 02 00    	mov    WORD PTR [ebp-0x20],0x2
 80488a5:	0f b7 45 d4          	movzx  eax,WORD PTR [ebp-0x2c]
 80488a9:	89 04 24             	mov    DWORD PTR [esp],eax
 80488ac:	e8 9f fd ff ff       	call   8048650 <htons@plt>
 80488b1:	66 89 45 e2          	mov    WORD PTR [ebp-0x1e],ax
 80488b5:	c7 04 24 00 00 00 00 	mov    DWORD PTR [esp],0x0
 80488bc:	e8 7f fe ff ff       	call   8048740 <htonl@plt>
 80488c1:	89 45 e4             	mov    DWORD PTR [ebp-0x1c],eax
 80488c4:	c7 44 24 04 01 00 00 	mov    DWORD PTR [esp+0x4],0x1
 80488cb:	00 
 80488cc:	c7 04 24 11 00 00 00 	mov    DWORD PTR [esp],0x11
 80488d3:	e8 18 fd ff ff       	call   80485f0 <signal@plt>
 80488d8:	83 f8 ff             	cmp    eax,0xffffffff
 80488db:	75 14                	jne    80488f1 <exit@plt+0x171>
 80488dd:	c7 44 24 04 40 90 04 	mov    DWORD PTR [esp+0x4],0x8049040
 80488e4:	08 
 80488e5:	c7 04 24 ff ff ff ff 	mov    DWORD PTR [esp],0xffffffff
 80488ec:	e8 ef fc ff ff       	call   80485e0 <err@plt>
 80488f1:	c7 44 24 08 06 00 00 	mov    DWORD PTR [esp+0x8],0x6
 80488f8:	00 
 80488f9:	c7 44 24 04 01 00 00 	mov    DWORD PTR [esp+0x4],0x1
 8048900:	00 
 8048901:	c7 04 24 02 00 00 00 	mov    DWORD PTR [esp],0x2
 8048908:	e8 93 fd ff ff       	call   80486a0 <socket@plt>
 804890d:	89 45 f4             	mov    DWORD PTR [ebp-0xc],eax
 8048910:	83 7d f4 ff          	cmp    DWORD PTR [ebp-0xc],0xffffffff
 8048914:	75 14                	jne    804892a <exit@plt+0x1aa>
 8048916:	c7 44 24 04 5e 90 04 	mov    DWORD PTR [esp+0x4],0x804905e
 804891d:	08 
 804891e:	c7 04 24 ff ff ff ff 	mov    DWORD PTR [esp],0xffffffff
 8048925:	e8 b6 fc ff ff       	call   80485e0 <err@plt>
 804892a:	c7 44 24 10 04 00 00 	mov    DWORD PTR [esp+0x10],0x4
 8048931:	00 
 8048932:	8d 45 f0             	lea    eax,[ebp-0x10]
 8048935:	89 44 24 0c          	mov    DWORD PTR [esp+0xc],eax
 8048939:	c7 44 24 08 02 00 00 	mov    DWORD PTR [esp+0x8],0x2
 8048940:	00 
 8048941:	c7 44 24 04 01 00 00 	mov    DWORD PTR [esp+0x4],0x1
 8048948:	00 
 8048949:	8b 45 f4             	mov    eax,DWORD PTR [ebp-0xc]
 804894c:	89 04 24             	mov    DWORD PTR [esp],eax
 804894f:	e8 dc fd ff ff       	call   8048730 <setsockopt@plt>
 8048954:	83 f8 ff             	cmp    eax,0xffffffff
 8048957:	75 14                	jne    804896d <exit@plt+0x1ed>
 8048959:	c7 44 24 04 76 90 04 	mov    DWORD PTR [esp+0x4],0x8049076
 8048960:	08 
 8048961:	c7 04 24 ff ff ff ff 	mov    DWORD PTR [esp],0xffffffff
 8048968:	e8 73 fc ff ff       	call   80485e0 <err@plt>
 804896d:	8d 55 e0             	lea    edx,[ebp-0x20]
 8048970:	b8 00 00 00 00       	mov    eax,0x0
 8048975:	89 d0                	mov    eax,edx
 8048977:	c7 44 24 08 10 00 00 	mov    DWORD PTR [esp+0x8],0x10
 804897e:	00 
 804897f:	89 44 24 04          	mov    DWORD PTR [esp+0x4],eax
 8048983:	8b 45 f4             	mov    eax,DWORD PTR [ebp-0xc]
 8048986:	89 04 24             	mov    DWORD PTR [esp],eax
 8048989:	e8 52 fd ff ff       	call   80486e0 <bind@plt>
 804898e:	83 f8 ff             	cmp    eax,0xffffffff
 8048991:	75 14                	jne    80489a7 <exit@plt+0x227>
 8048993:	c7 44 24 04 8a 90 04 	mov    DWORD PTR [esp+0x4],0x804908a
 804899a:	08 
 804899b:	c7 04 24 ff ff ff ff 	mov    DWORD PTR [esp],0xffffffff
 80489a2:	e8 39 fc ff ff       	call   80485e0 <err@plt>
 80489a7:	c7 44 24 04 14 00 00 	mov    DWORD PTR [esp+0x4],0x14
 80489ae:	00 
 80489af:	8b 45 f4             	mov    eax,DWORD PTR [ebp-0xc]
 80489b2:	89 04 24             	mov    DWORD PTR [esp],eax
 80489b5:	e8 66 fc ff ff       	call   8048620 <listen@plt>
 80489ba:	83 f8 ff             	cmp    eax,0xffffffff
 80489bd:	75 14                	jne    80489d3 <exit@plt+0x253>
 80489bf:	c7 44 24 04 a0 90 04 	mov    DWORD PTR [esp+0x4],0x80490a0
 80489c6:	08 
 80489c7:	c7 04 24 ff ff ff ff 	mov    DWORD PTR [esp],0xffffffff
 80489ce:	e8 0d fc ff ff       	call   80485e0 <err@plt>
 80489d3:	8b 45 f4             	mov    eax,DWORD PTR [ebp-0xc]
 80489d6:	c9                   	leave  
 80489d7:	c3                   	ret    
 80489d8:	55                   	push   ebp
 80489d9:	89 e5                	mov    ebp,esp
 80489db:	83 ec 28             	sub    esp,0x28
 80489de:	c7 45 f0 01 00 00 00 	mov    DWORD PTR [ebp-0x10],0x1
 80489e5:	eb 7b                	jmp    8048a62 <exit@plt+0x2e2>
 80489e7:	b8 00 00 00 00       	mov    eax,0x0
 80489ec:	c7 44 24 08 00 00 00 	mov    DWORD PTR [esp+0x8],0x0
 80489f3:	00 
 80489f4:	89 44 24 04          	mov    DWORD PTR [esp+0x4],eax
 80489f8:	8b 45 08             	mov    eax,DWORD PTR [ebp+0x8]
 80489fb:	89 04 24             	mov    DWORD PTR [esp],eax
 80489fe:	e8 8d fc ff ff       	call   8048690 <accept@plt>
 8048a03:	89 45 e8             	mov    DWORD PTR [ebp-0x18],eax
 8048a06:	83 7d e8 ff          	cmp    DWORD PTR [ebp-0x18],0xffffffff
 8048a0a:	74 52                	je     8048a5e <exit@plt+0x2de>
 8048a0c:	e8 0f fd ff ff       	call   8048720 <fork@plt>
 8048a11:	89 45 f4             	mov    DWORD PTR [ebp-0xc],eax
 8048a14:	83 7d f4 ff          	cmp    DWORD PTR [ebp-0xc],0xffffffff
 8048a18:	74 47                	je     8048a61 <exit@plt+0x2e1>
 8048a1a:	83 7d f4 00          	cmp    DWORD PTR [ebp-0xc],0x0
 8048a1e:	75 31                	jne    8048a51 <exit@plt+0x2d1>
 8048a20:	a1 74 b0 04 08       	mov    eax,ds:0x804b074
 8048a25:	89 04 24             	mov    DWORD PTR [esp],eax
 8048a28:	e8 41 00 00 00       	call   8048a6e <exit@plt+0x2ee>
 8048a2d:	8b 45 e8             	mov    eax,DWORD PTR [ebp-0x18]
 8048a30:	89 04 24             	mov    DWORD PTR [esp],eax
 8048a33:	8b 45 0c             	mov    eax,DWORD PTR [ebp+0xc]
 8048a36:	ff d0                	call   eax
 8048a38:	89 45 ec             	mov    DWORD PTR [ebp-0x14],eax
 8048a3b:	8b 45 e8             	mov    eax,DWORD PTR [ebp-0x18]
 8048a3e:	89 04 24             	mov    DWORD PTR [esp],eax
 8048a41:	e8 aa fc ff ff       	call   80486f0 <close@plt>
 8048a46:	8b 45 ec             	mov    eax,DWORD PTR [ebp-0x14]
 8048a49:	89 04 24             	mov    DWORD PTR [esp],eax
 8048a4c:	e8 2f fd ff ff       	call   8048780 <exit@plt>
 8048a51:	8b 45 e8             	mov    eax,DWORD PTR [ebp-0x18]
 8048a54:	89 04 24             	mov    DWORD PTR [esp],eax
 8048a57:	e8 94 fc ff ff       	call   80486f0 <close@plt>
 8048a5c:	eb 04                	jmp    8048a62 <exit@plt+0x2e2>
 8048a5e:	90                   	nop
 8048a5f:	eb 01                	jmp    8048a62 <exit@plt+0x2e2>
 8048a61:	90                   	nop
 8048a62:	83 7d f0 00          	cmp    DWORD PTR [ebp-0x10],0x0
 8048a66:	0f 85 7b ff ff ff    	jne    80489e7 <exit@plt+0x267>
 8048a6c:	c9                   	leave  
 8048a6d:	c3                   	ret    
 8048a6e:	55                   	push   ebp
 8048a6f:	89 e5                	mov    ebp,esp
 8048a71:	83 ec 28             	sub    esp,0x28
 8048a74:	8b 45 08             	mov    eax,DWORD PTR [ebp+0x8]
 8048a77:	89 04 24             	mov    DWORD PTR [esp],eax
 8048a7a:	e8 f1 fc ff ff       	call   8048770 <getpwnam@plt>
 8048a7f:	89 45 f4             	mov    DWORD PTR [ebp-0xc],eax
 8048a82:	83 7d f4 00          	cmp    DWORD PTR [ebp-0xc],0x0
 8048a86:	75 1b                	jne    8048aa3 <exit@plt+0x323>
 8048a88:	8b 45 08             	mov    eax,DWORD PTR [ebp+0x8]
 8048a8b:	89 44 24 08          	mov    DWORD PTR [esp+0x8],eax
 8048a8f:	c7 44 24 04 bb 90 04 	mov    DWORD PTR [esp+0x4],0x80490bb
 8048a96:	08 
 8048a97:	c7 04 24 ff ff ff ff 	mov    DWORD PTR [esp],0xffffffff
 8048a9e:	e8 3d fb ff ff       	call   80485e0 <err@plt>
 8048aa3:	8b 45 f4             	mov    eax,DWORD PTR [ebp-0xc]
 8048aa6:	89 04 24             	mov    DWORD PTR [esp],eax
 8048aa9:	e8 20 00 00 00       	call   8048ace <exit@plt+0x34e>
 8048aae:	83 f8 ff             	cmp    eax,0xffffffff
 8048ab1:	75 14                	jne    8048ac7 <exit@plt+0x347>
 8048ab3:	c7 44 24 04 d2 90 04 	mov    DWORD PTR [esp+0x4],0x80490d2
 8048aba:	08 
 8048abb:	c7 04 24 ff ff ff ff 	mov    DWORD PTR [esp],0xffffffff
 8048ac2:	e8 19 fb ff ff       	call   80485e0 <err@plt>
 8048ac7:	b8 00 00 00 00       	mov    eax,0x0
 8048acc:	c9                   	leave  
 8048acd:	c3                   	ret    
 8048ace:	55                   	push   ebp
 8048acf:	89 e5                	mov    ebp,esp
 8048ad1:	83 ec 28             	sub    esp,0x28
 8048ad4:	8b 45 08             	mov    eax,DWORD PTR [ebp+0x8]
 8048ad7:	8b 40 08             	mov    eax,DWORD PTR [eax+0x8]
 8048ada:	89 45 ec             	mov    DWORD PTR [ebp-0x14],eax
 8048add:	8b 45 08             	mov    eax,DWORD PTR [ebp+0x8]
 8048ae0:	8b 40 0c             	mov    eax,DWORD PTR [eax+0xc]
 8048ae3:	89 45 e8             	mov    DWORD PTR [ebp-0x18],eax
 8048ae6:	8b 45 08             	mov    eax,DWORD PTR [ebp+0x8]
 8048ae9:	8b 40 14             	mov    eax,DWORD PTR [eax+0x14]
 8048aec:	89 45 f4             	mov    DWORD PTR [ebp-0xc],eax
 8048aef:	8b 45 e8             	mov    eax,DWORD PTR [ebp-0x18]
 8048af2:	89 04 24             	mov    DWORD PTR [esp],eax
 8048af5:	e8 66 fc ff ff       	call   8048760 <setgid@plt>
 8048afa:	83 f8 ff             	cmp    eax,0xffffffff
 8048afd:	75 09                	jne    8048b08 <exit@plt+0x388>
 8048aff:	c7 45 f0 ff ff ff ff 	mov    DWORD PTR [ebp-0x10],0xffffffff
 8048b06:	eb 6b                	jmp    8048b73 <exit@plt+0x3f3>
 8048b08:	8b 45 ec             	mov    eax,DWORD PTR [ebp-0x14]
 8048b0b:	89 04 24             	mov    DWORD PTR [esp],eax
 8048b0e:	e8 9d fb ff ff       	call   80486b0 <setuid@plt>
 8048b13:	83 f8 ff             	cmp    eax,0xffffffff
 8048b16:	75 09                	jne    8048b21 <exit@plt+0x3a1>
 8048b18:	c7 45 f0 ff ff ff ff 	mov    DWORD PTR [ebp-0x10],0xffffffff
 8048b1f:	eb 52                	jmp    8048b73 <exit@plt+0x3f3>
 8048b21:	8b 45 ec             	mov    eax,DWORD PTR [ebp-0x14]
 8048b24:	89 04 24             	mov    DWORD PTR [esp],eax
 8048b27:	e8 24 fc ff ff       	call   8048750 <seteuid@plt>
 8048b2c:	83 f8 ff             	cmp    eax,0xffffffff
 8048b2f:	75 09                	jne    8048b3a <exit@plt+0x3ba>
 8048b31:	c7 45 f0 ff ff ff ff 	mov    DWORD PTR [ebp-0x10],0xffffffff
 8048b38:	eb 39                	jmp    8048b73 <exit@plt+0x3f3>
 8048b3a:	8b 45 e8             	mov    eax,DWORD PTR [ebp-0x18]
 8048b3d:	89 04 24             	mov    DWORD PTR [esp],eax
 8048b40:	e8 1b fb ff ff       	call   8048660 <setegid@plt>
 8048b45:	83 f8 ff             	cmp    eax,0xffffffff
 8048b48:	75 09                	jne    8048b53 <exit@plt+0x3d3>
 8048b4a:	c7 45 f0 ff ff ff ff 	mov    DWORD PTR [ebp-0x10],0xffffffff
 8048b51:	eb 20                	jmp    8048b73 <exit@plt+0x3f3>
 8048b53:	8b 45 f4             	mov    eax,DWORD PTR [ebp-0xc]
 8048b56:	89 04 24             	mov    DWORD PTR [esp],eax
 8048b59:	e8 72 fb ff ff       	call   80486d0 <chdir@plt>
 8048b5e:	83 f8 ff             	cmp    eax,0xffffffff
 8048b61:	75 09                	jne    8048b6c <exit@plt+0x3ec>
 8048b63:	c7 45 f0 ff ff ff ff 	mov    DWORD PTR [ebp-0x10],0xffffffff
 8048b6a:	eb 07                	jmp    8048b73 <exit@plt+0x3f3>
 8048b6c:	c7 45 f0 00 00 00 00 	mov    DWORD PTR [ebp-0x10],0x0
 8048b73:	8b 45 f0             	mov    eax,DWORD PTR [ebp-0x10]
 8048b76:	c9                   	leave  
 8048b77:	c3                   	ret    
 8048b78:	55                   	push   ebp
 8048b79:	89 e5                	mov    ebp,esp
 8048b7b:	83 ec 28             	sub    esp,0x28
 8048b7e:	c7 45 f0 00 00 00 00 	mov    DWORD PTR [ebp-0x10],0x0
 8048b85:	c7 45 f4 00 00 00 00 	mov    DWORD PTR [ebp-0xc],0x0
 8048b8c:	eb 42                	jmp    8048bd0 <exit@plt+0x450>
 8048b8e:	8b 45 f0             	mov    eax,DWORD PTR [ebp-0x10]
 8048b91:	8b 55 10             	mov    edx,DWORD PTR [ebp+0x10]
 8048b94:	29 c2                	sub    edx,eax
 8048b96:	8b 45 f0             	mov    eax,DWORD PTR [ebp-0x10]
 8048b99:	8b 4d 0c             	mov    ecx,DWORD PTR [ebp+0xc]
 8048b9c:	8d 04 01             	lea    eax,[ecx+eax*1]
 8048b9f:	c7 44 24 0c 00 00 00 	mov    DWORD PTR [esp+0xc],0x0
 8048ba6:	00 
 8048ba7:	89 54 24 08          	mov    DWORD PTR [esp+0x8],edx
 8048bab:	89 44 24 04          	mov    DWORD PTR [esp+0x4],eax
 8048baf:	8b 45 08             	mov    eax,DWORD PTR [ebp+0x8]
 8048bb2:	89 04 24             	mov    DWORD PTR [esp],eax
 8048bb5:	e8 46 fb ff ff       	call   8048700 <send@plt>
 8048bba:	89 45 f4             	mov    DWORD PTR [ebp-0xc],eax
 8048bbd:	83 7d f4 00          	cmp    DWORD PTR [ebp-0xc],0x0
 8048bc1:	7f 07                	jg     8048bca <exit@plt+0x44a>
 8048bc3:	b8 ff ff ff ff       	mov    eax,0xffffffff
 8048bc8:	eb 11                	jmp    8048bdb <exit@plt+0x45b>
 8048bca:	8b 45 f4             	mov    eax,DWORD PTR [ebp-0xc]
 8048bcd:	01 45 f0             	add    DWORD PTR [ebp-0x10],eax
 8048bd0:	8b 45 10             	mov    eax,DWORD PTR [ebp+0x10]
 8048bd3:	3b 45 f0             	cmp    eax,DWORD PTR [ebp-0x10]
 8048bd6:	77 b6                	ja     8048b8e <exit@plt+0x40e>
 8048bd8:	8b 45 f0             	mov    eax,DWORD PTR [ebp-0x10]
 8048bdb:	c9                   	leave  
 8048bdc:	c3                   	ret    
 8048bdd:	55                   	push   ebp
 8048bde:	89 e5                	mov    ebp,esp
 8048be0:	83 ec 18             	sub    esp,0x18
 8048be3:	8b 45 0c             	mov    eax,DWORD PTR [ebp+0xc]
 8048be6:	89 04 24             	mov    DWORD PTR [esp],eax
 8048be9:	e8 d2 fa ff ff       	call   80486c0 <strlen@plt>
 8048bee:	89 44 24 08          	mov    DWORD PTR [esp+0x8],eax
 8048bf2:	8b 45 0c             	mov    eax,DWORD PTR [ebp+0xc]
 8048bf5:	89 44 24 04          	mov    DWORD PTR [esp+0x4],eax
 8048bf9:	8b 45 08             	mov    eax,DWORD PTR [ebp+0x8]
 8048bfc:	89 04 24             	mov    DWORD PTR [esp],eax
 8048bff:	e8 74 ff ff ff       	call   8048b78 <exit@plt+0x3f8>
 8048c04:	c9                   	leave  
 8048c05:	c3                   	ret    
 8048c06:	55                   	push   ebp
 8048c07:	89 e5                	mov    ebp,esp
 8048c09:	83 ec 28             	sub    esp,0x28
 8048c0c:	c7 45 f4 00 00 00 00 	mov    DWORD PTR [ebp-0xc],0x0
 8048c13:	c7 45 ec 00 00 00 00 	mov    DWORD PTR [ebp-0x14],0x0
 8048c1a:	8d 45 10             	lea    eax,[ebp+0x10]
 8048c1d:	89 45 f0             	mov    DWORD PTR [ebp-0x10],eax
 8048c20:	8b 45 f0             	mov    eax,DWORD PTR [ebp-0x10]
 8048c23:	89 44 24 08          	mov    DWORD PTR [esp+0x8],eax
 8048c27:	8b 45 0c             	mov    eax,DWORD PTR [ebp+0xc]
 8048c2a:	89 44 24 04          	mov    DWORD PTR [esp+0x4],eax
 8048c2e:	8d 45 ec             	lea    eax,[ebp-0x14]
 8048c31:	89 04 24             	mov    DWORD PTR [esp],eax
 8048c34:	e8 d7 fa ff ff       	call   8048710 <vasprintf@plt>
 8048c39:	89 45 f4             	mov    DWORD PTR [ebp-0xc],eax
 8048c3c:	83 7d f4 ff          	cmp    DWORD PTR [ebp-0xc],0xffffffff
 8048c40:	74 17                	je     8048c59 <exit@plt+0x4d9>
 8048c42:	8b 45 ec             	mov    eax,DWORD PTR [ebp-0x14]
 8048c45:	89 44 24 04          	mov    DWORD PTR [esp+0x4],eax
 8048c49:	8b 45 08             	mov    eax,DWORD PTR [ebp+0x8]
 8048c4c:	89 04 24             	mov    DWORD PTR [esp],eax
 8048c4f:	e8 89 ff ff ff       	call   8048bdd <exit@plt+0x45d>
 8048c54:	89 45 f4             	mov    DWORD PTR [ebp-0xc],eax
 8048c57:	eb 01                	jmp    8048c5a <exit@plt+0x4da>
 8048c59:	90                   	nop
 8048c5a:	8b 45 ec             	mov    eax,DWORD PTR [ebp-0x14]
 8048c5d:	89 04 24             	mov    DWORD PTR [esp],eax
 8048c60:	e8 1b fa ff ff       	call   8048680 <free@plt>
 8048c65:	8b 45 f4             	mov    eax,DWORD PTR [ebp-0xc]
 8048c68:	c9                   	leave  
 8048c69:	c3                   	ret    
 8048c6a:	55                   	push   ebp
 8048c6b:	89 e5                	mov    ebp,esp
 8048c6d:	83 ec 28             	sub    esp,0x28
 8048c70:	c7 45 ec 00 00 00 00 	mov    DWORD PTR [ebp-0x14],0x0
 8048c77:	c7 45 f4 00 00 00 00 	mov    DWORD PTR [ebp-0xc],0x0
 8048c7e:	83 7d 10 00          	cmp    DWORD PTR [ebp+0x10],0x0
 8048c82:	74 5f                	je     8048ce3 <exit@plt+0x563>
 8048c84:	c7 45 f0 00 00 00 00 	mov    DWORD PTR [ebp-0x10],0x0
 8048c8b:	eb 48                	jmp    8048cd5 <exit@plt+0x555>
 8048c8d:	8b 45 f0             	mov    eax,DWORD PTR [ebp-0x10]
 8048c90:	8b 55 10             	mov    edx,DWORD PTR [ebp+0x10]
 8048c93:	89 d1                	mov    ecx,edx
 8048c95:	29 c1                	sub    ecx,eax
 8048c97:	89 c8                	mov    eax,ecx
 8048c99:	8b 55 f0             	mov    edx,DWORD PTR [ebp-0x10]
 8048c9c:	8b 4d 0c             	mov    ecx,DWORD PTR [ebp+0xc]
 8048c9f:	8d 14 11             	lea    edx,[ecx+edx*1]
 8048ca2:	89 44 24 0c          	mov    DWORD PTR [esp+0xc],eax
 8048ca6:	c7 44 24 08 00 00 00 	mov    DWORD PTR [esp+0x8],0x0
 8048cad:	00 
 8048cae:	89 54 24 04          	mov    DWORD PTR [esp+0x4],edx
 8048cb2:	8b 45 08             	mov    eax,DWORD PTR [ebp+0x8]
 8048cb5:	89 04 24             	mov    DWORD PTR [esp],eax
 8048cb8:	e8 53 f9 ff ff       	call   8048610 <recv@plt>
 8048cbd:	89 45 f4             	mov    DWORD PTR [ebp-0xc],eax
 8048cc0:	83 7d f4 ff          	cmp    DWORD PTR [ebp-0xc],0xffffffff
 8048cc4:	75 09                	jne    8048ccf <exit@plt+0x54f>
 8048cc6:	c7 45 ec ff ff ff ff 	mov    DWORD PTR [ebp-0x14],0xffffffff
 8048ccd:	eb 0e                	jmp    8048cdd <exit@plt+0x55d>
 8048ccf:	8b 45 f4             	mov    eax,DWORD PTR [ebp-0xc]
 8048cd2:	01 45 f0             	add    DWORD PTR [ebp-0x10],eax
 8048cd5:	8b 45 f0             	mov    eax,DWORD PTR [ebp-0x10]
 8048cd8:	3b 45 10             	cmp    eax,DWORD PTR [ebp+0x10]
 8048cdb:	72 b0                	jb     8048c8d <exit@plt+0x50d>
 8048cdd:	8b 45 f0             	mov    eax,DWORD PTR [ebp-0x10]
 8048ce0:	89 45 ec             	mov    DWORD PTR [ebp-0x14],eax
 8048ce3:	8b 45 ec             	mov    eax,DWORD PTR [ebp-0x14]
 8048ce6:	c9                   	leave  
 8048ce7:	c3                   	ret    
 8048ce8:	55                   	push   ebp
 8048ce9:	89 e5                	mov    ebp,esp
 8048ceb:	83 ec 38             	sub    esp,0x38
 8048cee:	8b 45 14             	mov    eax,DWORD PTR [ebp+0x14]
 8048cf1:	88 45 e4             	mov    BYTE PTR [ebp-0x1c],al
 8048cf4:	c7 45 f0 00 00 00 00 	mov    DWORD PTR [ebp-0x10],0x0
 8048cfb:	c7 45 f4 00 00 00 00 	mov    DWORD PTR [ebp-0xc],0x0
 8048d02:	eb 4c                	jmp    8048d50 <exit@plt+0x5d0>
 8048d04:	c7 44 24 08 01 00 00 	mov    DWORD PTR [esp+0x8],0x1
 8048d0b:	00 
 8048d0c:	8d 45 ef             	lea    eax,[ebp-0x11]
 8048d0f:	89 44 24 04          	mov    DWORD PTR [esp+0x4],eax
 8048d13:	8b 45 08             	mov    eax,DWORD PTR [ebp+0x8]
 8048d16:	89 04 24             	mov    DWORD PTR [esp],eax
 8048d19:	e8 52 f9 ff ff       	call   8048670 <read@plt>
 8048d1e:	85 c0                	test   eax,eax
 8048d20:	7e 25                	jle    8048d47 <exit@plt+0x5c7>
 8048d22:	0f b6 45 ef          	movzx  eax,BYTE PTR [ebp-0x11]
 8048d26:	3a 45 e4             	cmp    al,BYTE PTR [ebp-0x1c]
 8048d29:	75 08                	jne    8048d33 <exit@plt+0x5b3>
 8048d2b:	8b 45 f4             	mov    eax,DWORD PTR [ebp-0xc]
 8048d2e:	89 45 f0             	mov    DWORD PTR [ebp-0x10],eax
 8048d31:	eb 25                	jmp    8048d58 <exit@plt+0x5d8>
 8048d33:	8b 45 f4             	mov    eax,DWORD PTR [ebp-0xc]
 8048d36:	8b 55 0c             	mov    edx,DWORD PTR [ebp+0xc]
 8048d39:	01 c2                	add    edx,eax
 8048d3b:	0f b6 45 ef          	movzx  eax,BYTE PTR [ebp-0x11]
 8048d3f:	88 02                	mov    BYTE PTR [edx],al
 8048d41:	83 45 f4 01          	add    DWORD PTR [ebp-0xc],0x1
 8048d45:	eb 09                	jmp    8048d50 <exit@plt+0x5d0>
 8048d47:	c7 45 f0 ff ff ff ff 	mov    DWORD PTR [ebp-0x10],0xffffffff
 8048d4e:	eb 08                	jmp    8048d58 <exit@plt+0x5d8>
 8048d50:	8b 45 f4             	mov    eax,DWORD PTR [ebp-0xc]
 8048d53:	3b 45 10             	cmp    eax,DWORD PTR [ebp+0x10]
 8048d56:	72 ac                	jb     8048d04 <exit@plt+0x584>
 8048d58:	8b 45 f0             	mov    eax,DWORD PTR [ebp-0x10]
 8048d5b:	c9                   	leave  
 8048d5c:	c3                   	ret    
 8048d5d:	90                   	nop
 8048d5e:	90                   	nop
 8048d5f:	90                   	nop
 8048d60:	55                   	push   ebp
 8048d61:	89 e5                	mov    ebp,esp
 8048d63:	81 ec 38 10 00 00    	sub    esp,0x1038
 8048d69:	8d 85 e0 ef ff ff    	lea    eax,[ebp-0x1020]
 8048d6f:	89 45 e0             	mov    DWORD PTR [ebp-0x20],eax
 8048d72:	8b 45 08             	mov    eax,DWORD PTR [ebp+0x8]
 8048d75:	89 45 e4             	mov    DWORD PTR [ebp-0x1c],eax
 8048d78:	c7 44 24 08 00 10 00 	mov    DWORD PTR [esp+0x8],0x1000
 8048d7f:	00 
 8048d80:	c7 44 24 04 00 00 00 	mov    DWORD PTR [esp+0x4],0x0
 8048d87:	00 
 8048d88:	8d 85 e0 ef ff ff    	lea    eax,[ebp-0x1020]
 8048d8e:	89 04 24             	mov    DWORD PTR [esp],eax
 8048d91:	e8 9a f8 ff ff       	call   8048630 <memset@plt>
 8048d96:	c7 45 e8 00 00 00 01 	mov    DWORD PTR [ebp-0x18],0x1000000
 8048d9d:	e9 64 01 00 00       	jmp    8048f06 <exit@plt+0x786>
 8048da2:	8b 45 e4             	mov    eax,DWORD PTR [ebp-0x1c]
 8048da5:	0f b6 00             	movzx  eax,BYTE PTR [eax]
 8048da8:	88 45 ef             	mov    BYTE PTR [ebp-0x11],al
 8048dab:	83 45 e4 01          	add    DWORD PTR [ebp-0x1c],0x1
 8048daf:	0f be 45 ef          	movsx  eax,BYTE PTR [ebp-0x11]
 8048db3:	83 f8 3c             	cmp    eax,0x3c
 8048db6:	74 4c                	je     8048e04 <exit@plt+0x684>
 8048db8:	83 f8 3c             	cmp    eax,0x3c
 8048dbb:	7f 27                	jg     8048de4 <exit@plt+0x664>
 8048dbd:	83 f8 2d             	cmp    eax,0x2d
 8048dc0:	74 5e                	je     8048e20 <exit@plt+0x6a0>
 8048dc2:	83 f8 2d             	cmp    eax,0x2d
 8048dc5:	7f 13                	jg     8048dda <exit@plt+0x65a>
 8048dc7:	83 f8 0a             	cmp    eax,0xa
 8048dca:	0f 84 42 01 00 00    	je     8048f12 <exit@plt+0x792>
 8048dd0:	83 f8 2b             	cmp    eax,0x2b
 8048dd3:	74 38                	je     8048e0d <exit@plt+0x68d>
 8048dd5:	e9 28 01 00 00       	jmp    8048f02 <exit@plt+0x782>
 8048dda:	83 f8 2e             	cmp    eax,0x2e
 8048ddd:	74 54                	je     8048e33 <exit@plt+0x6b3>
 8048ddf:	e9 1e 01 00 00       	jmp    8048f02 <exit@plt+0x782>
 8048de4:	83 f8 5b             	cmp    eax,0x5b
 8048de7:	74 7a                	je     8048e63 <exit@plt+0x6e3>
 8048de9:	83 f8 5d             	cmp    eax,0x5d
 8048dec:	0f 84 be 00 00 00    	je     8048eb0 <exit@plt+0x730>
 8048df2:	83 f8 3e             	cmp    eax,0x3e
 8048df5:	0f 85 07 01 00 00    	jne    8048f02 <exit@plt+0x782>
 8048dfb:	83 45 e0 01          	add    DWORD PTR [ebp-0x20],0x1
 8048dff:	e9 fe 00 00 00       	jmp    8048f02 <exit@plt+0x782>
 8048e04:	83 6d e0 01          	sub    DWORD PTR [ebp-0x20],0x1
 8048e08:	e9 f5 00 00 00       	jmp    8048f02 <exit@plt+0x782>
 8048e0d:	8b 45 e0             	mov    eax,DWORD PTR [ebp-0x20]
 8048e10:	0f b6 00             	movzx  eax,BYTE PTR [eax]
 8048e13:	8d 50 01             	lea    edx,[eax+0x1]
 8048e16:	8b 45 e0             	mov    eax,DWORD PTR [ebp-0x20]
 8048e19:	88 10                	mov    BYTE PTR [eax],dl
 8048e1b:	e9 e2 00 00 00       	jmp    8048f02 <exit@plt+0x782>
 8048e20:	8b 45 e0             	mov    eax,DWORD PTR [ebp-0x20]
 8048e23:	0f b6 00             	movzx  eax,BYTE PTR [eax]
 8048e26:	8d 50 ff             	lea    edx,[eax-0x1]
 8048e29:	8b 45 e0             	mov    eax,DWORD PTR [ebp-0x20]
 8048e2c:	88 10                	mov    BYTE PTR [eax],dl
 8048e2e:	e9 cf 00 00 00       	jmp    8048f02 <exit@plt+0x782>
 8048e33:	c7 44 24 0c 00 00 00 	mov    DWORD PTR [esp+0xc],0x0
 8048e3a:	00 
 8048e3b:	c7 44 24 08 01 00 00 	mov    DWORD PTR [esp+0x8],0x1
 8048e42:	00 
 8048e43:	8b 45 e0             	mov    eax,DWORD PTR [ebp-0x20]
 8048e46:	89 44 24 04          	mov    DWORD PTR [esp+0x4],eax
 8048e4a:	8b 45 0c             	mov    eax,DWORD PTR [ebp+0xc]
 8048e4d:	89 04 24             	mov    DWORD PTR [esp],eax
 8048e50:	e8 ab f8 ff ff       	call   8048700 <send@plt>
 8048e55:	83 f8 01             	cmp    eax,0x1
 8048e58:	0f 84 9d 00 00 00    	je     8048efb <exit@plt+0x77b>
 8048e5e:	e9 b6 00 00 00       	jmp    8048f19 <exit@plt+0x799>
 8048e63:	8b 45 e0             	mov    eax,DWORD PTR [ebp-0x20]
 8048e66:	0f b6 00             	movzx  eax,BYTE PTR [eax]
 8048e69:	84 c0                	test   al,al
 8048e6b:	0f 85 8d 00 00 00    	jne    8048efe <exit@plt+0x77e>
 8048e71:	c7 45 f0 01 00 00 00 	mov    DWORD PTR [ebp-0x10],0x1
 8048e78:	eb 2e                	jmp    8048ea8 <exit@plt+0x728>
 8048e7a:	8b 45 e4             	mov    eax,DWORD PTR [ebp-0x1c]
 8048e7d:	0f b6 00             	movzx  eax,BYTE PTR [eax]
 8048e80:	3c 0a                	cmp    al,0xa
 8048e82:	0f 84 8d 00 00 00    	je     8048f15 <exit@plt+0x795>
 8048e88:	8b 45 e4             	mov    eax,DWORD PTR [ebp-0x1c]
 8048e8b:	0f b6 00             	movzx  eax,BYTE PTR [eax]
 8048e8e:	3c 5b                	cmp    al,0x5b
 8048e90:	75 04                	jne    8048e96 <exit@plt+0x716>
 8048e92:	83 45 f0 01          	add    DWORD PTR [ebp-0x10],0x1
 8048e96:	8b 45 e4             	mov    eax,DWORD PTR [ebp-0x1c]
 8048e99:	0f b6 00             	movzx  eax,BYTE PTR [eax]
 8048e9c:	3c 5d                	cmp    al,0x5d
 8048e9e:	75 04                	jne    8048ea4 <exit@plt+0x724>
 8048ea0:	83 6d f0 01          	sub    DWORD PTR [ebp-0x10],0x1
 8048ea4:	83 45 e4 01          	add    DWORD PTR [ebp-0x1c],0x1
 8048ea8:	83 7d f0 00          	cmp    DWORD PTR [ebp-0x10],0x0
 8048eac:	7f cc                	jg     8048e7a <exit@plt+0x6fa>
 8048eae:	eb 52                	jmp    8048f02 <exit@plt+0x782>
 8048eb0:	8b 45 e0             	mov    eax,DWORD PTR [ebp-0x20]
 8048eb3:	0f b6 00             	movzx  eax,BYTE PTR [eax]
 8048eb6:	84 c0                	test   al,al
 8048eb8:	74 47                	je     8048f01 <exit@plt+0x781>
 8048eba:	83 6d e4 02          	sub    DWORD PTR [ebp-0x1c],0x2
 8048ebe:	c7 45 f4 01 00 00 00 	mov    DWORD PTR [ebp-0xc],0x1
 8048ec5:	eb 28                	jmp    8048eef <exit@plt+0x76f>
 8048ec7:	8b 45 e4             	mov    eax,DWORD PTR [ebp-0x1c]
 8048eca:	3b 45 08             	cmp    eax,DWORD PTR [ebp+0x8]
 8048ecd:	72 49                	jb     8048f18 <exit@plt+0x798>
 8048ecf:	8b 45 e4             	mov    eax,DWORD PTR [ebp-0x1c]
 8048ed2:	0f b6 00             	movzx  eax,BYTE PTR [eax]
 8048ed5:	3c 5b                	cmp    al,0x5b
 8048ed7:	75 04                	jne    8048edd <exit@plt+0x75d>
 8048ed9:	83 6d f4 01          	sub    DWORD PTR [ebp-0xc],0x1
 8048edd:	8b 45 e4             	mov    eax,DWORD PTR [ebp-0x1c]
 8048ee0:	0f b6 00             	movzx  eax,BYTE PTR [eax]
 8048ee3:	3c 5d                	cmp    al,0x5d
 8048ee5:	75 04                	jne    8048eeb <exit@plt+0x76b>
 8048ee7:	83 45 f4 01          	add    DWORD PTR [ebp-0xc],0x1
 8048eeb:	83 6d e4 01          	sub    DWORD PTR [ebp-0x1c],0x1
 8048eef:	83 7d f4 00          	cmp    DWORD PTR [ebp-0xc],0x0
 8048ef3:	7f d2                	jg     8048ec7 <exit@plt+0x747>
 8048ef5:	83 45 e4 02          	add    DWORD PTR [ebp-0x1c],0x2
 8048ef9:	eb 07                	jmp    8048f02 <exit@plt+0x782>
 8048efb:	90                   	nop
 8048efc:	eb 04                	jmp    8048f02 <exit@plt+0x782>
 8048efe:	90                   	nop
 8048eff:	eb 01                	jmp    8048f02 <exit@plt+0x782>
 8048f01:	90                   	nop
 8048f02:	83 6d e8 01          	sub    DWORD PTR [ebp-0x18],0x1
 8048f06:	83 7d e8 00          	cmp    DWORD PTR [ebp-0x18],0x0
 8048f0a:	0f 85 92 fe ff ff    	jne    8048da2 <exit@plt+0x622>
 8048f10:	eb 07                	jmp    8048f19 <exit@plt+0x799>
 8048f12:	90                   	nop
 8048f13:	eb 04                	jmp    8048f19 <exit@plt+0x799>
 8048f15:	90                   	nop
 8048f16:	eb 01                	jmp    8048f19 <exit@plt+0x799>
 8048f18:	90                   	nop
 8048f19:	c9                   	leave  
 8048f1a:	c3                   	ret    
 8048f1b:	55                   	push   ebp
 8048f1c:	89 e5                	mov    ebp,esp
 8048f1e:	81 ec 28 02 00 00    	sub    esp,0x228
 8048f24:	c7 44 24 0c 0a 00 00 	mov    DWORD PTR [esp+0xc],0xa
 8048f2b:	00 
 8048f2c:	c7 44 24 08 ff 01 00 	mov    DWORD PTR [esp+0x8],0x1ff
 8048f33:	00 
 8048f34:	8d 85 f4 fd ff ff    	lea    eax,[ebp-0x20c]
 8048f3a:	89 44 24 04          	mov    DWORD PTR [esp+0x4],eax
 8048f3e:	8b 45 08             	mov    eax,DWORD PTR [ebp+0x8]
 8048f41:	89 04 24             	mov    DWORD PTR [esp],eax
 8048f44:	e8 9f fd ff ff       	call   8048ce8 <exit@plt+0x568>
 8048f49:	89 45 f4             	mov    DWORD PTR [ebp-0xc],eax
 8048f4c:	83 7d f4 00          	cmp    DWORD PTR [ebp-0xc],0x0
 8048f50:	7f 07                	jg     8048f59 <exit@plt+0x7d9>
 8048f52:	b8 00 00 00 00       	mov    eax,0x0
 8048f57:	c9                   	leave  
 8048f58:	c3                   	ret    
 8048f59:	8b 45 f4             	mov    eax,DWORD PTR [ebp-0xc]
 8048f5c:	c6 84 05 f4 fd ff ff 	mov    BYTE PTR [ebp+eax*1-0x20c],0xa
 8048f63:	0a 
 8048f64:	8b 45 08             	mov    eax,DWORD PTR [ebp+0x8]
 8048f67:	89 44 24 04          	mov    DWORD PTR [esp+0x4],eax
 8048f6b:	8d 85 f4 fd ff ff    	lea    eax,[ebp-0x20c]
 8048f71:	89 04 24             	mov    DWORD PTR [esp],eax
 8048f74:	e8 e7 fd ff ff       	call   8048d60 <exit@plt+0x5e0>
 8048f79:	eb a9                	jmp    8048f24 <exit@plt+0x7a4>
 8048f7b:	90                   	nop
 8048f7c:	90                   	nop
 8048f7d:	90                   	nop
 8048f7e:	90                   	nop
 8048f7f:	90                   	nop
 8048f80:	55                   	push   ebp
 8048f81:	89 e5                	mov    ebp,esp
 8048f83:	5d                   	pop    ebp
 8048f84:	c3                   	ret    
 8048f85:	8d 74 26 00          	lea    esi,[esi+eiz*1+0x0]
 8048f89:	8d bc 27 00 00 00 00 	lea    edi,[edi+eiz*1+0x0]
 8048f90:	55                   	push   ebp
 8048f91:	89 e5                	mov    ebp,esp
 8048f93:	57                   	push   edi
 8048f94:	56                   	push   esi
 8048f95:	53                   	push   ebx
 8048f96:	e8 4f 00 00 00       	call   8048fea <exit@plt+0x86a>
 8048f9b:	81 c3 59 20 00 00    	add    ebx,0x2059
 8048fa1:	83 ec 1c             	sub    esp,0x1c
 8048fa4:	e8 f7 f5 ff ff       	call   80485a0 <err@plt-0x40>
 8048fa9:	8d bb 20 ff ff ff    	lea    edi,[ebx-0xe0]
 8048faf:	8d 83 20 ff ff ff    	lea    eax,[ebx-0xe0]
 8048fb5:	29 c7                	sub    edi,eax
 8048fb7:	c1 ff 02             	sar    edi,0x2
 8048fba:	85 ff                	test   edi,edi
 8048fbc:	74 24                	je     8048fe2 <exit@plt+0x862>
 8048fbe:	31 f6                	xor    esi,esi
 8048fc0:	8b 45 10             	mov    eax,DWORD PTR [ebp+0x10]
 8048fc3:	89 44 24 08          	mov    DWORD PTR [esp+0x8],eax
 8048fc7:	8b 45 0c             	mov    eax,DWORD PTR [ebp+0xc]
 8048fca:	89 44 24 04          	mov    DWORD PTR [esp+0x4],eax
 8048fce:	8b 45 08             	mov    eax,DWORD PTR [ebp+0x8]
 8048fd1:	89 04 24             	mov    DWORD PTR [esp],eax
 8048fd4:	ff 94 b3 20 ff ff ff 	call   DWORD PTR [ebx+esi*4-0xe0]
 8048fdb:	83 c6 01             	add    esi,0x1
 8048fde:	39 fe                	cmp    esi,edi
 8048fe0:	72 de                	jb     8048fc0 <exit@plt+0x840>
 8048fe2:	83 c4 1c             	add    esp,0x1c
 8048fe5:	5b                   	pop    ebx
 8048fe6:	5e                   	pop    esi
 8048fe7:	5f                   	pop    edi
 8048fe8:	5d                   	pop    ebp
 8048fe9:	c3                   	ret    
 8048fea:	8b 1c 24             	mov    ebx,DWORD PTR [esp]
 8048fed:	c3                   	ret    
 8048fee:	90                   	nop
 8048fef:	90                   	nop
 8048ff0:	55                   	push   ebp
 8048ff1:	89 e5                	mov    ebp,esp
 8048ff3:	53                   	push   ebx
 8048ff4:	83 ec 04             	sub    esp,0x4
 8048ff7:	a1 14 af 04 08       	mov    eax,ds:0x804af14
 8048ffc:	83 f8 ff             	cmp    eax,0xffffffff
 8048fff:	74 13                	je     8049014 <exit@plt+0x894>
 8049001:	bb 14 af 04 08       	mov    ebx,0x804af14
 8049006:	66 90                	xchg   ax,ax
 8049008:	83 eb 04             	sub    ebx,0x4
 804900b:	ff d0                	call   eax
 804900d:	8b 03                	mov    eax,DWORD PTR [ebx]
 804900f:	83 f8 ff             	cmp    eax,0xffffffff
 8049012:	75 f4                	jne    8049008 <exit@plt+0x888>
 8049014:	83 c4 04             	add    esp,0x4
 8049017:	5b                   	pop    ebx
 8049018:	5d                   	pop    ebp
 8049019:	c3                   	ret    
 804901a:	90                   	nop
 804901b:	90                   	nop
